
main:     file format elf64-x86-64


Disassembly of section .init:

0000000000002000 <_init>:
    2000:	f3 0f 1e fa          	endbr64 
    2004:	48 83 ec 08          	sub    $0x8,%rsp
    2008:	48 8b 05 d1 7f 03 00 	mov    0x37fd1(%rip),%rax        # 39fe0 <__gmon_start__@Base>
    200f:	48 85 c0             	test   %rax,%rax
    2012:	74 02                	je     2016 <_init+0x16>
    2014:	ff d0                	call   *%rax
    2016:	48 83 c4 08          	add    $0x8,%rsp
    201a:	c3                   	ret    

Disassembly of section .plt:

0000000000002020 <ftell@plt-0x10>:
    2020:	ff 35 e2 7f 03 00    	push   0x37fe2(%rip)        # 3a008 <_GLOBAL_OFFSET_TABLE_+0x8>
    2026:	ff 25 e4 7f 03 00    	jmp    *0x37fe4(%rip)        # 3a010 <_GLOBAL_OFFSET_TABLE_+0x10>
    202c:	0f 1f 40 00          	nopl   0x0(%rax)

0000000000002030 <ftell@plt>:
    2030:	ff 25 e2 7f 03 00    	jmp    *0x37fe2(%rip)        # 3a018 <ftell@GLIBC_2.2.5>
    2036:	68 00 00 00 00       	push   $0x0
    203b:	e9 e0 ff ff ff       	jmp    2020 <_init+0x20>

0000000000002040 <_Znam@plt>:
    2040:	ff 25 da 7f 03 00    	jmp    *0x37fda(%rip)        # 3a020 <_Znam@GLIBCXX_3.4>
    2046:	68 01 00 00 00       	push   $0x1
    204b:	e9 d0 ff ff ff       	jmp    2020 <_init+0x20>

0000000000002050 <_ZNSo3putEc@plt>:
    2050:	ff 25 d2 7f 03 00    	jmp    *0x37fd2(%rip)        # 3a028 <_ZNSo3putEc@GLIBCXX_3.4>
    2056:	68 02 00 00 00       	push   $0x2
    205b:	e9 c0 ff ff ff       	jmp    2020 <_init+0x20>

0000000000002060 <_ZGVbN4vv_powf@plt>:
    2060:	ff 25 ca 7f 03 00    	jmp    *0x37fca(%rip)        # 3a030 <_ZGVbN4vv_powf@GLIBC_2.22>
    2066:	68 03 00 00 00       	push   $0x3
    206b:	e9 b0 ff ff ff       	jmp    2020 <_init+0x20>

0000000000002070 <ungetc@plt>:
    2070:	ff 25 c2 7f 03 00    	jmp    *0x37fc2(%rip)        # 3a038 <ungetc@GLIBC_2.2.5>
    2076:	68 04 00 00 00       	push   $0x4
    207b:	e9 a0 ff ff ff       	jmp    2020 <_init+0x20>

0000000000002080 <sprintf@plt>:
    2080:	ff 25 ba 7f 03 00    	jmp    *0x37fba(%rip)        # 3a040 <sprintf@GLIBC_2.2.5>
    2086:	68 05 00 00 00       	push   $0x5
    208b:	e9 90 ff ff ff       	jmp    2020 <_init+0x20>

0000000000002090 <frexpf@plt>:
    2090:	ff 25 b2 7f 03 00    	jmp    *0x37fb2(%rip)        # 3a048 <frexpf@GLIBC_2.2.5>
    2096:	68 06 00 00 00       	push   $0x6
    209b:	e9 80 ff ff ff       	jmp    2020 <_init+0x20>

00000000000020a0 <strlen@plt>:
    20a0:	ff 25 aa 7f 03 00    	jmp    *0x37faa(%rip)        # 3a050 <strlen@GLIBC_2.2.5>
    20a6:	68 07 00 00 00       	push   $0x7
    20ab:	e9 70 ff ff ff       	jmp    2020 <_init+0x20>

00000000000020b0 <memcmp@plt>:
    20b0:	ff 25 a2 7f 03 00    	jmp    *0x37fa2(%rip)        # 3a058 <memcmp@GLIBC_2.2.5>
    20b6:	68 08 00 00 00       	push   $0x8
    20bb:	e9 60 ff ff ff       	jmp    2020 <_init+0x20>

00000000000020c0 <memset@plt>:
    20c0:	ff 25 9a 7f 03 00    	jmp    *0x37f9a(%rip)        # 3a060 <memset@GLIBC_2.2.5>
    20c6:	68 09 00 00 00       	push   $0x9
    20cb:	e9 50 ff ff ff       	jmp    2020 <_init+0x20>

00000000000020d0 <__assert_fail@plt>:
    20d0:	ff 25 92 7f 03 00    	jmp    *0x37f92(%rip)        # 3a068 <__assert_fail@GLIBC_2.2.5>
    20d6:	68 0a 00 00 00       	push   $0xa
    20db:	e9 40 ff ff ff       	jmp    2020 <_init+0x20>

00000000000020e0 <calloc@plt>:
    20e0:	ff 25 8a 7f 03 00    	jmp    *0x37f8a(%rip)        # 3a070 <calloc@GLIBC_2.2.5>
    20e6:	68 0b 00 00 00       	push   $0xb
    20eb:	e9 30 ff ff ff       	jmp    2020 <_init+0x20>

00000000000020f0 <_ZNSo5flushEv@plt>:
    20f0:	ff 25 82 7f 03 00    	jmp    *0x37f82(%rip)        # 3a078 <_ZNSo5flushEv@GLIBCXX_3.4>
    20f6:	68 0c 00 00 00       	push   $0xc
    20fb:	e9 20 ff ff ff       	jmp    2020 <_init+0x20>

0000000000002100 <memcpy@plt>:
    2100:	ff 25 7a 7f 03 00    	jmp    *0x37f7a(%rip)        # 3a080 <memcpy@GLIBC_2.14>
    2106:	68 0d 00 00 00       	push   $0xd
    210b:	e9 10 ff ff ff       	jmp    2020 <_init+0x20>

0000000000002110 <__cxa_atexit@plt>:
    2110:	ff 25 72 7f 03 00    	jmp    *0x37f72(%rip)        # 3a088 <__cxa_atexit@GLIBC_2.2.5>
    2116:	68 0e 00 00 00       	push   $0xe
    211b:	e9 00 ff ff ff       	jmp    2020 <_init+0x20>

0000000000002120 <_ZStlsISt11char_traitsIcEERSt13basic_ostreamIcT_ES5_PKc@plt>:
    2120:	ff 25 6a 7f 03 00    	jmp    *0x37f6a(%rip)        # 3a090 <_ZStlsISt11char_traitsIcEERSt13basic_ostreamIcT_ES5_PKc@GLIBCXX_3.4>
    2126:	68 0f 00 00 00       	push   $0xf
    212b:	e9 f0 fe ff ff       	jmp    2020 <_init+0x20>

0000000000002130 <fclose@plt>:
    2130:	ff 25 62 7f 03 00    	jmp    *0x37f62(%rip)        # 3a098 <fclose@GLIBC_2.2.5>
    2136:	68 10 00 00 00       	push   $0x10
    213b:	e9 e0 fe ff ff       	jmp    2020 <_init+0x20>

0000000000002140 <fseek@plt>:
    2140:	ff 25 5a 7f 03 00    	jmp    *0x37f5a(%rip)        # 3a0a0 <fseek@GLIBC_2.2.5>
    2146:	68 11 00 00 00       	push   $0x11
    214b:	e9 d0 fe ff ff       	jmp    2020 <_init+0x20>

0000000000002150 <__stack_chk_fail@plt>:
    2150:	ff 25 52 7f 03 00    	jmp    *0x37f52(%rip)        # 3a0a8 <__stack_chk_fail@GLIBC_2.4>
    2156:	68 12 00 00 00       	push   $0x12
    215b:	e9 c0 fe ff ff       	jmp    2020 <_init+0x20>

0000000000002160 <_ZSt16__ostream_insertIcSt11char_traitsIcEERSt13basic_ostreamIT_T0_ES6_PKS3_l@plt>:
    2160:	ff 25 4a 7f 03 00    	jmp    *0x37f4a(%rip)        # 3a0b0 <_ZSt16__ostream_insertIcSt11char_traitsIcEERSt13basic_ostreamIT_T0_ES6_PKS3_l@GLIBCXX_3.4.9>
    2166:	68 13 00 00 00       	push   $0x13
    216b:	e9 b0 fe ff ff       	jmp    2020 <_init+0x20>

0000000000002170 <_ZNKSt5ctypeIcE13_M_widen_initEv@plt>:
    2170:	ff 25 42 7f 03 00    	jmp    *0x37f42(%rip)        # 3a0b8 <_ZNKSt5ctypeIcE13_M_widen_initEv@GLIBCXX_3.4.11>
    2176:	68 14 00 00 00       	push   $0x14
    217b:	e9 a0 fe ff ff       	jmp    2020 <_init+0x20>

0000000000002180 <fopen@plt>:
    2180:	ff 25 3a 7f 03 00    	jmp    *0x37f3a(%rip)        # 3a0c0 <fopen@GLIBC_2.2.5>
    2186:	68 15 00 00 00       	push   $0x15
    218b:	e9 90 fe ff ff       	jmp    2020 <_init+0x20>

0000000000002190 <free@plt>:
    2190:	ff 25 32 7f 03 00    	jmp    *0x37f32(%rip)        # 3a0c8 <free@GLIBC_2.2.5>
    2196:	68 16 00 00 00       	push   $0x16
    219b:	e9 80 fe ff ff       	jmp    2020 <_init+0x20>

00000000000021a0 <exit@plt>:
    21a0:	ff 25 2a 7f 03 00    	jmp    *0x37f2a(%rip)        # 3a0d0 <exit@GLIBC_2.2.5>
    21a6:	68 17 00 00 00       	push   $0x17
    21ab:	e9 70 fe ff ff       	jmp    2020 <_init+0x20>

00000000000021b0 <_ZSt16__throw_bad_castv@plt>:
    21b0:	ff 25 22 7f 03 00    	jmp    *0x37f22(%rip)        # 3a0d8 <_ZSt16__throw_bad_castv@GLIBCXX_3.4>
    21b6:	68 18 00 00 00       	push   $0x18
    21bb:	e9 60 fe ff ff       	jmp    2020 <_init+0x20>

00000000000021c0 <malloc@plt>:
    21c0:	ff 25 1a 7f 03 00    	jmp    *0x37f1a(%rip)        # 3a0e0 <malloc@GLIBC_2.2.5>
    21c6:	68 19 00 00 00       	push   $0x19
    21cb:	e9 50 fe ff ff       	jmp    2020 <_init+0x20>

00000000000021d0 <ldexpf@plt>:
    21d0:	ff 25 12 7f 03 00    	jmp    *0x37f12(%rip)        # 3a0e8 <ldexpf@GLIBC_2.2.5>
    21d6:	68 1a 00 00 00       	push   $0x1a
    21db:	e9 40 fe ff ff       	jmp    2020 <_init+0x20>

00000000000021e0 <strcmp@plt>:
    21e0:	ff 25 0a 7f 03 00    	jmp    *0x37f0a(%rip)        # 3a0f0 <strcmp@GLIBC_2.2.5>
    21e6:	68 1b 00 00 00       	push   $0x1b
    21eb:	e9 30 fe ff ff       	jmp    2020 <_init+0x20>

00000000000021f0 <strtol@plt>:
    21f0:	ff 25 02 7f 03 00    	jmp    *0x37f02(%rip)        # 3a0f8 <strtol@GLIBC_2.2.5>
    21f6:	68 1c 00 00 00       	push   $0x1c
    21fb:	e9 20 fe ff ff       	jmp    2020 <_init+0x20>

0000000000002200 <__cxa_throw_bad_array_new_length@plt>:
    2200:	ff 25 fa 7e 03 00    	jmp    *0x37efa(%rip)        # 3a100 <__cxa_throw_bad_array_new_length@CXXABI_1.3.8>
    2206:	68 1d 00 00 00       	push   $0x1d
    220b:	e9 10 fe ff ff       	jmp    2020 <_init+0x20>

0000000000002210 <fread@plt>:
    2210:	ff 25 f2 7e 03 00    	jmp    *0x37ef2(%rip)        # 3a108 <fread@GLIBC_2.2.5>
    2216:	68 1e 00 00 00       	push   $0x1e
    221b:	e9 00 fe ff ff       	jmp    2020 <_init+0x20>

0000000000002220 <_ZNSt8ios_base4InitC1Ev@plt>:
    2220:	ff 25 ea 7e 03 00    	jmp    *0x37eea(%rip)        # 3a110 <_ZNSt8ios_base4InitC1Ev@GLIBCXX_3.4>
    2226:	68 1f 00 00 00       	push   $0x1f
    222b:	e9 f0 fd ff ff       	jmp    2020 <_init+0x20>

0000000000002230 <feof@plt>:
    2230:	ff 25 e2 7e 03 00    	jmp    *0x37ee2(%rip)        # 3a118 <feof@GLIBC_2.2.5>
    2236:	68 20 00 00 00       	push   $0x20
    223b:	e9 e0 fd ff ff       	jmp    2020 <_init+0x20>

0000000000002240 <powf@plt>:
    2240:	ff 25 da 7e 03 00    	jmp    *0x37eda(%rip)        # 3a120 <powf@GLIBC_2.27>
    2246:	68 21 00 00 00       	push   $0x21
    224b:	e9 d0 fd ff ff       	jmp    2020 <_init+0x20>

0000000000002250 <fgetc@plt>:
    2250:	ff 25 d2 7e 03 00    	jmp    *0x37ed2(%rip)        # 3a128 <fgetc@GLIBC_2.2.5>
    2256:	68 22 00 00 00       	push   $0x22
    225b:	e9 c0 fd ff ff       	jmp    2020 <_init+0x20>

0000000000002260 <_ZNSo9_M_insertIdEERSoT_@plt>:
    2260:	ff 25 ca 7e 03 00    	jmp    *0x37eca(%rip)        # 3a130 <_ZNSo9_M_insertIdEERSoT_@GLIBCXX_3.4.9>
    2266:	68 23 00 00 00       	push   $0x23
    226b:	e9 b0 fd ff ff       	jmp    2020 <_init+0x20>

0000000000002270 <memmove@plt>:
    2270:	ff 25 c2 7e 03 00    	jmp    *0x37ec2(%rip)        # 3a138 <memmove@GLIBC_2.2.5>
    2276:	68 24 00 00 00       	push   $0x24
    227b:	e9 a0 fd ff ff       	jmp    2020 <_init+0x20>

0000000000002280 <realloc@plt>:
    2280:	ff 25 ba 7e 03 00    	jmp    *0x37eba(%rip)        # 3a140 <realloc@GLIBC_2.2.5>
    2286:	68 25 00 00 00       	push   $0x25
    228b:	e9 90 fd ff ff       	jmp    2020 <_init+0x20>

0000000000002290 <expf@plt>:
    2290:	ff 25 b2 7e 03 00    	jmp    *0x37eb2(%rip)        # 3a148 <expf@GLIBC_2.27>
    2296:	68 26 00 00 00       	push   $0x26
    229b:	e9 80 fd ff ff       	jmp    2020 <_init+0x20>

00000000000022a0 <_ZNSolsEi@plt>:
    22a0:	ff 25 aa 7e 03 00    	jmp    *0x37eaa(%rip)        # 3a150 <_ZNSolsEi@GLIBCXX_3.4>
    22a6:	68 27 00 00 00       	push   $0x27
    22ab:	e9 70 fd ff ff       	jmp    2020 <_init+0x20>

00000000000022b0 <strcat@plt>:
    22b0:	ff 25 a2 7e 03 00    	jmp    *0x37ea2(%rip)        # 3a158 <strcat@GLIBC_2.2.5>
    22b6:	68 28 00 00 00       	push   $0x28
    22bb:	e9 60 fd ff ff       	jmp    2020 <_init+0x20>

00000000000022c0 <strdup@plt>:
    22c0:	ff 25 9a 7e 03 00    	jmp    *0x37e9a(%rip)        # 3a160 <strdup@GLIBC_2.2.5>
    22c6:	68 29 00 00 00       	push   $0x29
    22cb:	e9 50 fd ff ff       	jmp    2020 <_init+0x20>

00000000000022d0 <ferror@plt>:
    22d0:	ff 25 92 7e 03 00    	jmp    *0x37e92(%rip)        # 3a168 <ferror@GLIBC_2.2.5>
    22d6:	68 2a 00 00 00       	push   $0x2a
    22db:	e9 40 fd ff ff       	jmp    2020 <_init+0x20>

00000000000022e0 <fwrite@plt>:
    22e0:	ff 25 8a 7e 03 00    	jmp    *0x37e8a(%rip)        # 3a170 <fwrite@GLIBC_2.2.5>
    22e6:	68 2b 00 00 00       	push   $0x2b
    22eb:	e9 30 fd ff ff       	jmp    2020 <_init+0x20>

Disassembly of section .text:

00000000000022f0 <main.cold>:
    22f0:	e8 0b ff ff ff       	call   2200 <__cxa_throw_bad_array_new_length@plt>
    22f5:	66 2e 0f 1f 84 00 00 	cs nopw 0x0(%rax,%rax,1)
    22fc:	00 00 00 
    22ff:	90                   	nop

0000000000002300 <main>:
    2300:	41 57                	push   %r15
    2302:	41 56                	push   %r14
    2304:	41 55                	push   %r13
    2306:	41 54                	push   %r12
    2308:	55                   	push   %rbp
    2309:	53                   	push   %rbx
    230a:	48 81 ec b8 00 00 00 	sub    $0xb8,%rsp
    2311:	64 48 8b 04 25 28 00 	mov    %fs:0x28,%rax
    2318:	00 00 
    231a:	48 89 84 24 a8 00 00 	mov    %rax,0xa8(%rsp)
    2321:	00 
    2322:	31 c0                	xor    %eax,%eax
    2324:	83 ff 01             	cmp    $0x1,%edi
    2327:	0f 8e 14 29 00 00    	jle    4c41 <main+0x2941>
    232d:	41 bf ff ff ff ff    	mov    $0xffffffff,%r15d
    2333:	31 c0                	xor    %eax,%eax
    2335:	45 31 c9             	xor    %r9d,%r9d
    2338:	89 fd                	mov    %edi,%ebp
    233a:	44 89 7c 24 14       	mov    %r15d,0x14(%rsp)
    233f:	49 89 f4             	mov    %rsi,%r12
    2342:	41 bd 01 00 00 00    	mov    $0x1,%r13d
    2348:	49 89 c7             	mov    %rax,%r15
    234b:	4c 89 4c 24 08       	mov    %r9,0x8(%rsp)
    2350:	eb 30                	jmp    2382 <main+0x82>
    2352:	39 dd                	cmp    %ebx,%ebp
    2354:	0f 8e d9 28 00 00    	jle    4c33 <main+0x2933>
    235a:	4f 8d 6c 34 08       	lea    0x8(%r12,%r14,1),%r13
    235f:	4d 8b 75 00          	mov    0x0(%r13),%r14
    2363:	4c 89 f7             	mov    %r14,%rdi
    2366:	e8 55 ff ff ff       	call   22c0 <strdup@plt>
    236b:	48 89 44 24 08       	mov    %rax,0x8(%rsp)
    2370:	4d 85 ff             	test   %r15,%r15
    2373:	0f 84 94 0c 00 00    	je     300d <main+0xd0d>
    2379:	44 8d 6b 01          	lea    0x1(%rbx),%r13d
    237d:	44 39 ed             	cmp    %r13d,%ebp
    2380:	7e 67                	jle    23e9 <main+0xe9>
    2382:	49 63 c5             	movslq %r13d,%rax
    2385:	49 8b 14 c4          	mov    (%r12,%rax,8),%rdx
    2389:	4c 8d 34 c5 00 00 00 	lea    0x0(,%rax,8),%r14
    2390:	00 
    2391:	0f b6 0a             	movzbl (%rdx),%ecx
    2394:	89 c8                	mov    %ecx,%eax
    2396:	83 e8 2d             	sub    $0x2d,%eax
    2399:	75 0d                	jne    23a8 <main+0xa8>
    239b:	0f b6 42 01          	movzbl 0x1(%rdx),%eax
    239f:	83 e8 69             	sub    $0x69,%eax
    23a2:	75 04                	jne    23a8 <main+0xa8>
    23a4:	0f b6 42 02          	movzbl 0x2(%rdx),%eax
    23a8:	41 8d 5d 01          	lea    0x1(%r13),%ebx
    23ac:	85 c0                	test   %eax,%eax
    23ae:	74 a2                	je     2352 <main+0x52>
    23b0:	48 8d 35 e5 18 03 00 	lea    0x318e5(%rip),%rsi        # 33c9c <_IO_stdin_used+0xc9c>
    23b7:	48 89 d7             	mov    %rdx,%rdi
    23ba:	89 4c 24 20          	mov    %ecx,0x20(%rsp)
    23be:	48 89 54 24 18       	mov    %rdx,0x18(%rsp)
    23c3:	e8 18 fe ff ff       	call   21e0 <strcmp@plt>
    23c8:	85 c0                	test   %eax,%eax
    23ca:	0f 84 cc 0b 00 00    	je     2f9c <main+0xc9c>
    23d0:	8b 4c 24 20          	mov    0x20(%rsp),%ecx
    23d4:	83 f9 2d             	cmp    $0x2d,%ecx
    23d7:	0f 84 e1 0b 00 00    	je     2fbe <main+0xcbe>
    23dd:	44 89 eb             	mov    %r13d,%ebx
    23e0:	44 8d 6b 01          	lea    0x1(%rbx),%r13d
    23e4:	44 39 ed             	cmp    %r13d,%ebp
    23e7:	7f 99                	jg     2382 <main+0x82>
    23e9:	4c 8b 4c 24 08       	mov    0x8(%rsp),%r9
    23ee:	4c 89 7c 24 48       	mov    %r15,0x48(%rsp)
    23f3:	44 8b 7c 24 14       	mov    0x14(%rsp),%r15d
    23f8:	4d 85 c9             	test   %r9,%r9
    23fb:	0f 84 eb 27 00 00    	je     4bec <main+0x28ec>
    2401:	48 8d b4 24 9c 00 00 	lea    0x9c(%rsp),%rsi
    2408:	00 
    2409:	41 b8 03 00 00 00    	mov    $0x3,%r8d
    240f:	4c 89 cf             	mov    %r9,%rdi
    2412:	48 8d 8c 24 a4 00 00 	lea    0xa4(%rsp),%rcx
    2419:	00 
    241a:	48 8d 94 24 a0 00 00 	lea    0xa0(%rsp),%rdx
    2421:	00 
    2422:	e8 29 bf 02 00       	call   2e350 <stbi_load>
    2427:	44 8b b4 24 9c 00 00 	mov    0x9c(%rsp),%r14d
    242e:	00 
    242f:	44 8b a4 24 a4 00 00 	mov    0xa4(%rsp),%r12d
    2436:	00 
    2437:	48 89 c3             	mov    %rax,%rbx
    243a:	8b 84 24 a0 00 00 00 	mov    0xa0(%rsp),%eax
    2441:	89 44 24 14          	mov    %eax,0x14(%rsp)
    2445:	41 0f af c6          	imul   %r14d,%eax
    2449:	89 c6                	mov    %eax,%esi
    244b:	48 b8 a8 aa aa aa aa 	movabs $0x2aaaaaaaaaaaaaa8,%rax
    2452:	aa aa 2a 
    2455:	41 0f af f4          	imul   %r12d,%esi
    2459:	4c 63 ee             	movslq %esi,%r13
    245c:	89 74 24 08          	mov    %esi,0x8(%rsp)
    2460:	4c 39 e8             	cmp    %r13,%rax
    2463:	0f 82 87 fe ff ff    	jb     22f0 <main.cold>
    2469:	4b 8d 7c 6d 00       	lea    0x0(%r13,%r13,2),%rdi
    246e:	e8 cd fb ff ff       	call   2040 <_Znam@plt>
    2473:	49 8d 7d ff          	lea    -0x1(%r13),%rdi
    2477:	8b 74 24 08          	mov    0x8(%rsp),%esi
    247b:	48 83 ff ff          	cmp    $0xffffffffffffffff,%rdi
    247f:	48 89 c5             	mov    %rax,%rbp
    2482:	48 89 fa             	mov    %rdi,%rdx
    2485:	0f 84 fb 00 00 00    	je     2586 <main+0x286>
    248b:	48 83 ff 0e          	cmp    $0xe,%rdi
    248f:	0f 86 ed 26 00 00    	jbe    4b82 <main+0x2882>
    2495:	4c 89 ea             	mov    %r13,%rdx
    2498:	66 0f ef c0          	pxor   %xmm0,%xmm0
    249c:	48 c1 ea 04          	shr    $0x4,%rdx
    24a0:	48 8d 14 52          	lea    (%rdx,%rdx,2),%rdx
    24a4:	48 c1 e2 04          	shl    $0x4,%rdx
    24a8:	48 01 c2             	add    %rax,%rdx
    24ab:	0f 11 00             	movups %xmm0,(%rax)
    24ae:	48 83 c0 30          	add    $0x30,%rax
    24b2:	0f 11 40 e0          	movups %xmm0,-0x20(%rax)
    24b6:	0f 11 40 f0          	movups %xmm0,-0x10(%rax)
    24ba:	48 39 d0             	cmp    %rdx,%rax
    24bd:	75 ec                	jne    24ab <main+0x1ab>
    24bf:	4c 89 e9             	mov    %r13,%rcx
    24c2:	48 83 e1 f0          	and    $0xfffffffffffffff0,%rcx
    24c6:	48 8d 04 49          	lea    (%rcx,%rcx,2),%rax
    24ca:	48 29 cf             	sub    %rcx,%rdi
    24cd:	48 01 e8             	add    %rbp,%rax
    24d0:	83 e6 0f             	and    $0xf,%esi
    24d3:	48 89 fa             	mov    %rdi,%rdx
    24d6:	0f 84 aa 00 00 00    	je     2586 <main+0x286>
    24dc:	49 29 cd             	sub    %rcx,%r13
    24df:	49 8d 75 ff          	lea    -0x1(%r13),%rsi
    24e3:	48 83 fe 06          	cmp    $0x6,%rsi
    24e7:	76 35                	jbe    251e <main+0x21e>
    24e9:	48 8d 0c 49          	lea    (%rcx,%rcx,2),%rcx
    24ed:	48 01 e9             	add    %rbp,%rcx
    24f0:	48 c7 01 00 00 00 00 	movq   $0x0,(%rcx)
    24f7:	48 c7 41 08 00 00 00 	movq   $0x0,0x8(%rcx)
    24fe:	00 
    24ff:	48 c7 41 10 00 00 00 	movq   $0x0,0x10(%rcx)
    2506:	00 
    2507:	4c 89 e9             	mov    %r13,%rcx
    250a:	48 83 e1 f8          	and    $0xfffffffffffffff8,%rcx
    250e:	48 8d 34 49          	lea    (%rcx,%rcx,2),%rsi
    2512:	48 29 ca             	sub    %rcx,%rdx
    2515:	48 01 f0             	add    %rsi,%rax
    2518:	41 83 e5 07          	and    $0x7,%r13d
    251c:	74 68                	je     2586 <main+0x286>
    251e:	66 c7 00 00 00       	movw   $0x0,(%rax)
    2523:	c6 40 02 00          	movb   $0x0,0x2(%rax)
    2527:	48 85 d2             	test   %rdx,%rdx
    252a:	74 5a                	je     2586 <main+0x286>
    252c:	66 c7 40 03 00 00    	movw   $0x0,0x3(%rax)
    2532:	c6 40 05 00          	movb   $0x0,0x5(%rax)
    2536:	48 83 fa 01          	cmp    $0x1,%rdx
    253a:	74 4a                	je     2586 <main+0x286>
    253c:	66 c7 40 06 00 00    	movw   $0x0,0x6(%rax)
    2542:	c6 40 08 00          	movb   $0x0,0x8(%rax)
    2546:	48 83 fa 02          	cmp    $0x2,%rdx
    254a:	74 3a                	je     2586 <main+0x286>
    254c:	66 c7 40 09 00 00    	movw   $0x0,0x9(%rax)
    2552:	c6 40 0b 00          	movb   $0x0,0xb(%rax)
    2556:	48 83 fa 03          	cmp    $0x3,%rdx
    255a:	74 2a                	je     2586 <main+0x286>
    255c:	66 c7 40 0c 00 00    	movw   $0x0,0xc(%rax)
    2562:	c6 40 0e 00          	movb   $0x0,0xe(%rax)
    2566:	48 83 fa 04          	cmp    $0x4,%rdx
    256a:	74 1a                	je     2586 <main+0x286>
    256c:	66 c7 40 0f 00 00    	movw   $0x0,0xf(%rax)
    2572:	c6 40 11 00          	movb   $0x0,0x11(%rax)
    2576:	48 83 fa 05          	cmp    $0x5,%rdx
    257a:	74 0a                	je     2586 <main+0x286>
    257c:	66 c7 40 12 00 00    	movw   $0x0,0x12(%rax)
    2582:	c6 40 14 00          	movb   $0x0,0x14(%rax)
    2586:	ba 13 00 00 00       	mov    $0x13,%edx
    258b:	48 8d 35 2f 17 03 00 	lea    0x3172f(%rip),%rsi        # 33cc1 <_IO_stdin_used+0xcc1>
    2592:	48 8d 3d 67 7c 03 00 	lea    0x37c67(%rip),%rdi        # 3a200 <_ZSt4cout@GLIBCXX_3.4>
    2599:	e8 c2 fb ff ff       	call   2160 <_ZSt16__ostream_insertIcSt11char_traitsIcEERSt13basic_ostreamIT_T0_ES6_PKS3_l@plt>
    259e:	44 89 f6             	mov    %r14d,%esi
    25a1:	48 8d 3d 58 7c 03 00 	lea    0x37c58(%rip),%rdi        # 3a200 <_ZSt4cout@GLIBCXX_3.4>
    25a8:	e8 f3 fc ff ff       	call   22a0 <_ZNSolsEi@plt>
    25ad:	ba 01 00 00 00       	mov    $0x1,%edx
    25b2:	48 8d 35 1c 17 03 00 	lea    0x3171c(%rip),%rsi        # 33cd5 <_IO_stdin_used+0xcd5>
    25b9:	48 89 c7             	mov    %rax,%rdi
    25bc:	49 89 c5             	mov    %rax,%r13
    25bf:	e8 9c fb ff ff       	call   2160 <_ZSt16__ostream_insertIcSt11char_traitsIcEERSt13basic_ostreamIT_T0_ES6_PKS3_l@plt>
    25c4:	8b 74 24 14          	mov    0x14(%rsp),%esi
    25c8:	4c 89 ef             	mov    %r13,%rdi
    25cb:	e8 d0 fc ff ff       	call   22a0 <_ZNSolsEi@plt>
    25d0:	48 89 c7             	mov    %rax,%rdi
    25d3:	e8 b8 7a 00 00       	call   a090 <_ZSt4endlIcSt11char_traitsIcEERSt13basic_ostreamIT_T0_ES6_.isra.0>
    25d8:	ba 15 00 00 00       	mov    $0x15,%edx
    25dd:	48 8d 35 f3 16 03 00 	lea    0x316f3(%rip),%rsi        # 33cd7 <_IO_stdin_used+0xcd7>
    25e4:	48 8d 3d 15 7c 03 00 	lea    0x37c15(%rip),%rdi        # 3a200 <_ZSt4cout@GLIBCXX_3.4>
    25eb:	e8 70 fb ff ff       	call   2160 <_ZSt16__ostream_insertIcSt11char_traitsIcEERSt13basic_ostreamIT_T0_ES6_PKS3_l@plt>
    25f0:	44 89 e6             	mov    %r12d,%esi
    25f3:	48 8d 3d 06 7c 03 00 	lea    0x37c06(%rip),%rdi        # 3a200 <_ZSt4cout@GLIBCXX_3.4>
    25fa:	e8 a1 fc ff ff       	call   22a0 <_ZNSolsEi@plt>
    25ff:	48 89 c7             	mov    %rax,%rdi
    2602:	e8 89 7a 00 00       	call   a090 <_ZSt4endlIcSt11char_traitsIcEERSt13basic_ostreamIT_T0_ES6_.isra.0>
    2607:	ba 12 00 00 00       	mov    $0x12,%edx
    260c:	48 8d 35 da 16 03 00 	lea    0x316da(%rip),%rsi        # 33ced <_IO_stdin_used+0xced>
    2613:	48 8d 3d e6 7b 03 00 	lea    0x37be6(%rip),%rdi        # 3a200 <_ZSt4cout@GLIBCXX_3.4>
    261a:	e8 41 fb ff ff       	call   2160 <_ZSt16__ostream_insertIcSt11char_traitsIcEERSt13basic_ostreamIT_T0_ES6_PKS3_l@plt>
    261f:	48 8b 74 24 48       	mov    0x48(%rsp),%rsi
    2624:	48 8d 3d d5 7b 03 00 	lea    0x37bd5(%rip),%rdi        # 3a200 <_ZSt4cout@GLIBCXX_3.4>
    262b:	e8 f0 fa ff ff       	call   2120 <_ZStlsISt11char_traitsIcEERSt13basic_ostreamIcT_ES5_PKc@plt>
    2630:	ba 01 00 00 00       	mov    $0x1,%edx
    2635:	48 8d 35 20 11 03 00 	lea    0x31120(%rip),%rsi        # 3375c <_IO_stdin_used+0x75c>
    263c:	49 89 c4             	mov    %rax,%r12
    263f:	48 89 c7             	mov    %rax,%rdi
    2642:	e8 19 fb ff ff       	call   2160 <_ZSt16__ostream_insertIcSt11char_traitsIcEERSt13basic_ostreamIT_T0_ES6_PKS3_l@plt>
    2647:	4c 89 e7             	mov    %r12,%rdi
    264a:	e8 41 7a 00 00       	call   a090 <_ZSt4endlIcSt11char_traitsIcEERSt13basic_ostreamIT_T0_ES6_.isra.0>
    264f:	41 83 ff ff          	cmp    $0xffffffff,%r15d
    2653:	0f 84 48 0a 00 00    	je     30a1 <main+0xda1>
    2659:	66 0f ef c9          	pxor   %xmm1,%xmm1
    265d:	f3 0f 10 15 33 3b 03 	movss  0x33b33(%rip),%xmm2        # 36198 <_ZL11stbi__bmask+0x478>
    2664:	00 
    2665:	47 8d 6c 3f 01       	lea    0x1(%r15,%r15,1),%r13d
    266a:	f3 0f 10 05 fe 3a 03 	movss  0x33afe(%rip),%xmm0        # 36170 <_ZL11stbi__bmask+0x450>
    2671:	00 
    2672:	f3 41 0f 2a cf       	cvtsi2ss %r15d,%xmm1
    2677:	0f 2f d1             	comiss %xmm1,%xmm2
    267a:	0f 86 11 0a 00 00    	jbe    3091 <main+0xd91>
    2680:	48 b8 ff ff ff ff ff 	movabs $0xfffffffffffffff,%rax
    2687:	ff ff 0f 
    268a:	4d 63 e5             	movslq %r13d,%r12
    268d:	4c 39 e0             	cmp    %r12,%rax
    2690:	0f 82 b9 25 00 00    	jb     4c4f <main+0x294f>
    2696:	4a 8d 3c e5 00 00 00 	lea    0x0(,%r12,8),%rdi
    269d:	00 
    269e:	f3 0f 11 44 24 18    	movss  %xmm0,0x18(%rsp)
    26a4:	49 c1 e4 02          	shl    $0x2,%r12
    26a8:	e8 93 f9 ff ff       	call   2040 <_Znam@plt>
    26ad:	31 d2                	xor    %edx,%edx
    26af:	f3 0f 10 44 24 18    	movss  0x18(%rsp),%xmm0
    26b5:	48 89 6c 24 08       	mov    %rbp,0x8(%rsp)
    26ba:	48 89 44 24 30       	mov    %rax,0x30(%rsp)
    26bf:	48 89 dd             	mov    %rbx,%rbp
    26c2:	48 89 d3             	mov    %rdx,%rbx
    26c5:	4c 89 e7             	mov    %r12,%rdi
    26c8:	f3 0f 11 44 24 18    	movss  %xmm0,0x18(%rsp)
    26ce:	e8 6d f9 ff ff       	call   2040 <_Znam@plt>
    26d3:	48 8b 7c 24 30       	mov    0x30(%rsp),%rdi
    26d8:	f3 0f 10 44 24 18    	movss  0x18(%rsp),%xmm0
    26de:	48 89 04 df          	mov    %rax,(%rdi,%rbx,8)
    26e2:	48 83 c3 01          	add    $0x1,%rbx
    26e6:	41 39 dd             	cmp    %ebx,%r13d
    26e9:	7f da                	jg     26c5 <main+0x3c5>
    26eb:	f3 0f 59 c0          	mulss  %xmm0,%xmm0
    26ef:	44 89 f8             	mov    %r15d,%eax
    26f2:	48 89 eb             	mov    %rbp,%rbx
    26f5:	48 8b 6c 24 08       	mov    0x8(%rsp),%rbp
    26fa:	f7 d8                	neg    %eax
    26fc:	89 44 24 18          	mov    %eax,0x18(%rsp)
    2700:	0f 28 c8             	movaps %xmm0,%xmm1
    2703:	f3 0f 58 c8          	addss  %xmm0,%xmm1
    2707:	44 39 f8             	cmp    %r15d,%eax
    270a:	0f 8f 27 0a 00 00    	jg     3137 <main+0xe37>
    2710:	f3 0f 10 15 c8 38 03 	movss  0x338c8(%rip),%xmm2        # 35fe0 <_ZL11stbi__bmask+0x2c0>
    2717:	00 
    2718:	48 89 f9             	mov    %rdi,%rcx
    271b:	4d 63 cf             	movslq %r15d,%r9
    271e:	48 63 f8             	movslq %eax,%rdi
    2721:	4d 8d 04 39          	lea    (%r9,%rdi,1),%r8
    2725:	48 89 5c 24 50       	mov    %rbx,0x50(%rsp)
    272a:	4e 8d 2c c9          	lea    (%rcx,%r9,8),%r13
    272e:	f3 0f 5e d0          	divss  %xmm0,%xmm2
    2732:	66 0f ef c0          	pxor   %xmm0,%xmm0
    2736:	48 89 7c 24 38       	mov    %rdi,0x38(%rsp)
    273b:	4e 8d 24 85 00 00 00 	lea    0x0(,%r8,4),%r12
    2742:	00 
    2743:	f3 0f 5a c1          	cvtss2sd %xmm1,%xmm0
    2747:	4c 89 64 24 60       	mov    %r12,0x60(%rsp)
    274c:	41 8d 7f 01          	lea    0x1(%r15),%edi
    2750:	f2 0f 10 0d a0 3a 03 	movsd  0x33aa0(%rip),%xmm1        # 361f8 <_ZL11stbi__bmask+0x4d8>
    2757:	00 
    2758:	c7 44 24 08 00 00 00 	movl   $0x0,0x8(%rsp)
    275f:	00 
    2760:	44 89 74 24 40       	mov    %r14d,0x40(%rsp)
    2765:	41 89 c6             	mov    %eax,%r14d
    2768:	48 89 6c 24 58       	mov    %rbp,0x58(%rsp)
    276d:	4c 89 e5             	mov    %r12,%rbp
    2770:	f2 0f 5e c8          	divsd  %xmm0,%xmm1
    2774:	f3 0f 11 54 24 28    	movss  %xmm2,0x28(%rsp)
    277a:	f2 0f 11 4c 24 20    	movsd  %xmm1,0x20(%rsp)
    2780:	45 89 f4             	mov    %r14d,%r12d
    2783:	4c 89 44 24 68       	mov    %r8,0x68(%rsp)
    2788:	48 8b 5c 24 38       	mov    0x38(%rsp),%rbx
    278d:	45 0f af e6          	imul   %r14d,%r12d
    2791:	89 7c 24 70          	mov    %edi,0x70(%rsp)
    2795:	4c 89 4c 24 78       	mov    %r9,0x78(%rsp)
    279a:	66 0f 1f 44 00 00    	nopw   0x0(%rax,%rax,1)
    27a0:	89 da                	mov    %ebx,%edx
    27a2:	66 0f ef c0          	pxor   %xmm0,%xmm0
    27a6:	0f af d3             	imul   %ebx,%edx
    27a9:	44 01 e2             	add    %r12d,%edx
    27ac:	f7 da                	neg    %edx
    27ae:	f3 0f 2a c2          	cvtsi2ss %edx,%xmm0
    27b2:	f3 0f 59 44 24 28    	mulss  0x28(%rsp),%xmm0
    27b8:	f3 0f 59 05 dc 39 03 	mulss  0x339dc(%rip),%xmm0        # 3619c <_ZL11stbi__bmask+0x47c>
    27bf:	00 
    27c0:	e8 cb fa ff ff       	call   2290 <expf@plt>
    27c5:	49 8b 54 dd 00       	mov    0x0(%r13,%rbx,8),%rdx
    27ca:	48 83 c3 01          	add    $0x1,%rbx
    27ce:	f3 0f 5a c0          	cvtss2sd %xmm0,%xmm0
    27d2:	f2 0f 59 44 24 20    	mulsd  0x20(%rsp),%xmm0
    27d8:	f2 0f 5a c0          	cvtsd2ss %xmm0,%xmm0
    27dc:	f3 0f 11 04 2a       	movss  %xmm0,(%rdx,%rbp,1)
    27e1:	f3 0f 58 44 24 08    	addss  0x8(%rsp),%xmm0
    27e7:	f3 0f 11 44 24 08    	movss  %xmm0,0x8(%rsp)
    27ed:	41 39 df             	cmp    %ebx,%r15d
    27f0:	7d ae                	jge    27a0 <main+0x4a0>
    27f2:	8b 7c 24 70          	mov    0x70(%rsp),%edi
    27f6:	41 83 c6 01          	add    $0x1,%r14d
    27fa:	4c 8b 44 24 68       	mov    0x68(%rsp),%r8
    27ff:	48 83 c5 04          	add    $0x4,%rbp
    2803:	4c 8b 4c 24 78       	mov    0x78(%rsp),%r9
    2808:	41 39 fe             	cmp    %edi,%r14d
    280b:	0f 85 6f ff ff ff    	jne    2780 <main+0x480>
    2811:	ba 06 00 00 00       	mov    $0x6,%edx
    2816:	4c 89 44 24 28       	mov    %r8,0x28(%rsp)
    281b:	44 8b 74 24 40       	mov    0x40(%rsp),%r14d
    2820:	48 8d 35 d9 14 03 00 	lea    0x314d9(%rip),%rsi        # 33d00 <_IO_stdin_used+0xd00>
    2827:	48 8b 5c 24 50       	mov    0x50(%rsp),%rbx
    282c:	48 8b 6c 24 58       	mov    0x58(%rsp),%rbp
    2831:	4c 89 4c 24 20       	mov    %r9,0x20(%rsp)
    2836:	48 8d 3d c3 79 03 00 	lea    0x379c3(%rip),%rdi        # 3a200 <_ZSt4cout@GLIBCXX_3.4>
    283d:	4c 8b 64 24 60       	mov    0x60(%rsp),%r12
    2842:	e8 19 f9 ff ff       	call   2160 <_ZSt16__ostream_insertIcSt11char_traitsIcEERSt13basic_ostreamIT_T0_ES6_PKS3_l@plt>
    2847:	48 8d 3d b2 79 03 00 	lea    0x379b2(%rip),%rdi        # 3a200 <_ZSt4cout@GLIBCXX_3.4>
    284e:	66 0f ef c0          	pxor   %xmm0,%xmm0
    2852:	f3 0f 5a 44 24 08    	cvtss2sd 0x8(%rsp),%xmm0
    2858:	e8 03 fa ff ff       	call   2260 <_ZNSo9_M_insertIdEERSoT_@plt>
    285d:	48 89 c7             	mov    %rax,%rdi
    2860:	e8 2b 78 00 00       	call   a090 <_ZSt4endlIcSt11char_traitsIcEERSt13basic_ostreamIT_T0_ES6_.isra.0>
    2865:	48 8b 7c 24 38       	mov    0x38(%rsp),%rdi
    286a:	4c 8b 4c 24 20       	mov    0x20(%rsp),%r9
    286f:	43 8d 04 3f          	lea    (%r15,%r15,1),%eax
    2873:	4c 8b 44 24 28       	mov    0x28(%rsp),%r8
    2878:	66 0f ef c9          	pxor   %xmm1,%xmm1
    287c:	f3 0f 10 15 ec 38 03 	movss  0x338ec(%rip),%xmm2        # 36170 <_ZL11stbi__bmask+0x450>
    2883:	00 
    2884:	f3 0f 5e 54 24 08    	divss  0x8(%rsp),%xmm2
    288a:	4a 8d 4c 0f 01       	lea    0x1(%rdi,%r9,1),%rcx
    288f:	48 8b 7c 24 30       	mov    0x30(%rsp),%rdi
    2894:	48 01 c1             	add    %rax,%rcx
    2897:	4a 8d 44 00 01       	lea    0x1(%rax,%r8,1),%rax
    289c:	4a 8d 34 c7          	lea    (%rdi,%r8,8),%rsi
    28a0:	48 c1 e1 02          	shl    $0x2,%rcx
    28a4:	48 8d 3c c7          	lea    (%rdi,%rax,8),%rdi
    28a8:	48 89 f0             	mov    %rsi,%rax
    28ab:	0f 1f 44 00 00       	nopl   0x0(%rax,%rax,1)
    28b0:	48 8b 10             	mov    (%rax),%rdx
    28b3:	48 83 c0 08          	add    $0x8,%rax
    28b7:	4c 01 e2             	add    %r12,%rdx
    28ba:	f3 0f 10 02          	movss  (%rdx),%xmm0
    28be:	f3 0f 59 c2          	mulss  %xmm2,%xmm0
    28c2:	f3 0f 58 c8          	addss  %xmm0,%xmm1
    28c6:	f3 0f 11 02          	movss  %xmm0,(%rdx)
    28ca:	48 39 f8             	cmp    %rdi,%rax
    28cd:	75 e1                	jne    28b0 <main+0x5b0>
    28cf:	49 83 c4 04          	add    $0x4,%r12
    28d3:	49 39 cc             	cmp    %rcx,%r12
    28d6:	75 d0                	jne    28a8 <main+0x5a8>
    28d8:	ba 06 00 00 00       	mov    $0x6,%edx
    28dd:	48 8d 35 23 14 03 00 	lea    0x31423(%rip),%rsi        # 33d07 <_IO_stdin_used+0xd07>
    28e4:	48 8d 3d 15 79 03 00 	lea    0x37915(%rip),%rdi        # 3a200 <_ZSt4cout@GLIBCXX_3.4>
    28eb:	f3 0f 11 4c 24 08    	movss  %xmm1,0x8(%rsp)
    28f1:	e8 6a f8 ff ff       	call   2160 <_ZSt16__ostream_insertIcSt11char_traitsIcEERSt13basic_ostreamIT_T0_ES6_PKS3_l@plt>
    28f6:	f3 0f 10 4c 24 08    	movss  0x8(%rsp),%xmm1
    28fc:	48 8d 3d fd 78 03 00 	lea    0x378fd(%rip),%rdi        # 3a200 <_ZSt4cout@GLIBCXX_3.4>
    2903:	66 0f ef c0          	pxor   %xmm0,%xmm0
    2907:	f3 0f 5a c1          	cvtss2sd %xmm1,%xmm0
    290b:	e8 50 f9 ff ff       	call   2260 <_ZNSo9_M_insertIdEERSoT_@plt>
    2910:	48 89 c7             	mov    %rax,%rdi
    2913:	e8 78 77 00 00       	call   a090 <_ZSt4endlIcSt11char_traitsIcEERSt13basic_ostreamIT_T0_ES6_.isra.0>
    2918:	8b 7c 24 14          	mov    0x14(%rsp),%edi
    291c:	44 29 ff             	sub    %r15d,%edi
    291f:	44 39 ff             	cmp    %r15d,%edi
    2922:	0f 8e 98 07 00 00    	jle    30c0 <main+0xdc0>
    2928:	44 89 f0             	mov    %r14d,%eax
    292b:	44 29 f8             	sub    %r15d,%eax
    292e:	89 44 24 38          	mov    %eax,0x38(%rsp)
    2932:	44 39 f8             	cmp    %r15d,%eax
    2935:	0f 8e 85 07 00 00    	jle    30c0 <main+0xdc0>
    293b:	49 63 c6             	movslq %r14d,%rax
    293e:	4d 63 cf             	movslq %r15d,%r9
    2941:	48 63 4c 24 18       	movslq 0x18(%rsp),%rcx
    2946:	44 89 7c 24 20       	mov    %r15d,0x20(%rsp)
    294b:	4c 8d 14 40          	lea    (%rax,%rax,2),%r10
    294f:	44 89 f0             	mov    %r14d,%eax
    2952:	48 89 6c 24 60       	mov    %rbp,0x60(%rsp)
    2957:	31 f6                	xor    %esi,%esi
    2959:	41 0f af c7          	imul   %r15d,%eax
    295d:	48 89 5c 24 58       	mov    %rbx,0x58(%rsp)
    2962:	48 98                	cltq   
    2964:	4c 01 c8             	add    %r9,%rax
    2967:	48 8d 04 40          	lea    (%rax,%rax,2),%rax
    296b:	48 01 e8             	add    %rbp,%rax
    296e:	48 89 44 24 28       	mov    %rax,0x28(%rsp)
    2973:	4a 8d 04 09          	lea    (%rcx,%r9,1),%rax
    2977:	4a 8d 4c 09 01       	lea    0x1(%rcx,%r9,1),%rcx
    297c:	48 8d 14 85 00 00 00 	lea    0x0(,%rax,4),%rdx
    2983:	00 
    2984:	48 89 54 24 40       	mov    %rdx,0x40(%rsp)
    2989:	43 8d 14 3f          	lea    (%r15,%r15,1),%edx
    298d:	48 01 d1             	add    %rdx,%rcx
    2990:	4c 8d 4a 01          	lea    0x1(%rdx),%r9
    2994:	4c 8d 04 8d 00 00 00 	lea    0x0(,%rcx,4),%r8
    299b:	00 
    299c:	48 8b 4c 24 30       	mov    0x30(%rsp),%rcx
    29a1:	4c 8d 1c c1          	lea    (%rcx,%rax,8),%r11
    29a5:	48 01 d0             	add    %rdx,%rax
    29a8:	89 fa                	mov    %edi,%edx
    29aa:	48 89 44 24 50       	mov    %rax,0x50(%rsp)
    29af:	48 8d 43 03          	lea    0x3(%rbx),%rax
    29b3:	44 89 f3             	mov    %r14d,%ebx
    29b6:	48 89 44 24 30       	mov    %rax,0x30(%rsp)
    29bb:	4a 8d 04 8d 00 00 00 	lea    0x0(,%r9,4),%rax
    29c2:	00 
    29c3:	49 29 c1             	sub    %rax,%r9
    29c6:	48 8b 7c 24 50       	mov    0x50(%rsp),%rdi
    29cb:	48 63 c6             	movslq %esi,%rax
    29ce:	89 5c 24 68          	mov    %ebx,0x68(%rsp)
    29d2:	42 8d 2c 3e          	lea    (%rsi,%r15,1),%ebp
    29d6:	44 89 7c 24 08       	mov    %r15d,0x8(%rsp)
    29db:	48 01 f8             	add    %rdi,%rax
    29de:	8b 7c 24 38          	mov    0x38(%rsp),%edi
    29e2:	89 54 24 70          	mov    %edx,0x70(%rsp)
    29e6:	48 8d 0c 40          	lea    (%rax,%rax,2),%rcx
    29ea:	48 8b 44 24 30       	mov    0x30(%rsp),%rax
    29ef:	48 8b 54 24 40       	mov    0x40(%rsp),%rdx
    29f4:	44 8d 24 37          	lea    (%rdi,%rsi,1),%r12d
    29f8:	89 f7                	mov    %esi,%edi
    29fa:	48 01 c1             	add    %rax,%rcx
    29fd:	48 8b 44 24 28       	mov    0x28(%rsp),%rax
    2a02:	66 0f 1f 44 00 00    	nopw   0x0(%rax,%rax,1)
    2a08:	8b 74 24 08          	mov    0x8(%rsp),%esi
    2a0c:	39 74 24 18          	cmp    %esi,0x18(%rsp)
    2a10:	0f 8f 25 06 00 00    	jg     303b <main+0xd3b>
    2a16:	66 0f ef d2          	pxor   %xmm2,%xmm2
    2a1a:	49 89 ce             	mov    %rcx,%r14
    2a1d:	48 89 d3             	mov    %rdx,%rbx
    2a20:	0f 28 da             	movaps %xmm2,%xmm3
    2a23:	0f 28 e2             	movaps %xmm2,%xmm4
    2a26:	66 2e 0f 1f 84 00 00 	cs nopw 0x0(%rax,%rax,1)
    2a2d:	00 00 00 
    2a30:	4b 8d 34 31          	lea    (%r9,%r14,1),%rsi
    2a34:	4d 89 dd             	mov    %r11,%r13
    2a37:	66 0f 1f 84 00 00 00 	nopw   0x0(%rax,%rax,1)
    2a3e:	00 00 
    2a40:	4d 8b 7d 00          	mov    0x0(%r13),%r15
    2a44:	66 0f ef c0          	pxor   %xmm0,%xmm0
    2a48:	48 83 c6 03          	add    $0x3,%rsi
    2a4c:	49 83 c5 08          	add    $0x8,%r13
    2a50:	f3 41 0f 10 0c 1f    	movss  (%r15,%rbx,1),%xmm1
    2a56:	44 0f b6 7e fd       	movzbl -0x3(%rsi),%r15d
    2a5b:	f3 41 0f 2a c7       	cvtsi2ss %r15d,%xmm0
    2a60:	44 0f b6 7e fe       	movzbl -0x2(%rsi),%r15d
    2a65:	f3 0f 59 c1          	mulss  %xmm1,%xmm0
    2a69:	f3 0f 58 e0          	addss  %xmm0,%xmm4
    2a6d:	66 0f ef c0          	pxor   %xmm0,%xmm0
    2a71:	f3 41 0f 2a c7       	cvtsi2ss %r15d,%xmm0
    2a76:	44 0f b6 7e ff       	movzbl -0x1(%rsi),%r15d
    2a7b:	f3 0f 59 c1          	mulss  %xmm1,%xmm0
    2a7f:	f3 0f 58 d8          	addss  %xmm0,%xmm3
    2a83:	66 0f ef c0          	pxor   %xmm0,%xmm0
    2a87:	f3 41 0f 2a c7       	cvtsi2ss %r15d,%xmm0
    2a8c:	f3 0f 59 c1          	mulss  %xmm1,%xmm0
    2a90:	f3 0f 58 d0          	addss  %xmm0,%xmm2
    2a94:	4c 39 f6             	cmp    %r14,%rsi
    2a97:	75 a7                	jne    2a40 <main+0x740>
    2a99:	48 83 c3 04          	add    $0x4,%rbx
    2a9d:	4e 8d 34 16          	lea    (%rsi,%r10,1),%r14
    2aa1:	4c 39 c3             	cmp    %r8,%rbx
    2aa4:	75 8a                	jne    2a30 <main+0x730>
    2aa6:	f3 0f 2c f4          	cvttss2si %xmm4,%esi
    2aaa:	f3 0f 2c db          	cvttss2si %xmm3,%ebx
    2aae:	f3 44 0f 2c f2       	cvttss2si %xmm2,%r14d
    2ab3:	83 c5 01             	add    $0x1,%ebp
    2ab6:	40 88 30             	mov    %sil,(%rax)
    2ab9:	48 83 c1 03          	add    $0x3,%rcx
    2abd:	48 83 c0 03          	add    $0x3,%rax
    2ac1:	88 58 fe             	mov    %bl,-0x2(%rax)
    2ac4:	44 88 70 ff          	mov    %r14b,-0x1(%rax)
    2ac8:	44 39 e5             	cmp    %r12d,%ebp
    2acb:	0f 85 37 ff ff ff    	jne    2a08 <main+0x708>
    2ad1:	83 44 24 20 01       	addl   $0x1,0x20(%rsp)
    2ad6:	8b 5c 24 68          	mov    0x68(%rsp),%ebx
    2ada:	89 fe                	mov    %edi,%esi
    2adc:	8b 54 24 70          	mov    0x70(%rsp),%edx
    2ae0:	8b 44 24 20          	mov    0x20(%rsp),%eax
    2ae4:	4c 01 54 24 28       	add    %r10,0x28(%rsp)
    2ae9:	44 8b 7c 24 08       	mov    0x8(%rsp),%r15d
    2aee:	01 de                	add    %ebx,%esi
    2af0:	39 d0                	cmp    %edx,%eax
    2af2:	0f 85 ce fe ff ff    	jne    29c6 <main+0x6c6>
    2af8:	41 89 de             	mov    %ebx,%r14d
    2afb:	48 8b 6c 24 60       	mov    0x60(%rsp),%rbp
    2b00:	48 8b 5c 24 58       	mov    0x58(%rsp),%rbx
    2b05:	89 d7                	mov    %edx,%edi
    2b07:	45 85 ff             	test   %r15d,%r15d
    2b0a:	0f 8e 60 06 00 00    	jle    3170 <main+0xe70>
    2b10:	45 85 f6             	test   %r14d,%r14d
    2b13:	0f 8e f7 12 00 00    	jle    3e10 <main+0x1b10>
    2b19:	41 8d 47 ff          	lea    -0x1(%r15),%eax
    2b1d:	89 44 24 18          	mov    %eax,0x18(%rsp)
    2b21:	41 83 ff 02          	cmp    $0x2,%r15d
    2b25:	0f 8e 7a 1d 00 00    	jle    48a5 <main+0x25a5>
    2b2b:	43 8d 14 36          	lea    (%r14,%r14,1),%edx
    2b2f:	48 8d 73 03          	lea    0x3(%rbx),%rsi
    2b33:	44 89 7c 24 60       	mov    %r15d,0x60(%rsp)
    2b38:	45 31 db             	xor    %r11d,%r11d
    2b3b:	48 63 c2             	movslq %edx,%rax
    2b3e:	89 54 24 08          	mov    %edx,0x8(%rsp)
    2b42:	44 01 f2             	add    %r14d,%edx
    2b45:	45 8d 6e ff          	lea    -0x1(%r14),%r13d
    2b49:	48 89 44 24 38       	mov    %rax,0x38(%rsp)
    2b4e:	48 8d 04 40          	lea    (%rax,%rax,2),%rax
    2b52:	45 89 f1             	mov    %r14d,%r9d
    2b55:	48 89 44 24 50       	mov    %rax,0x50(%rsp)
    2b5a:	49 63 c6             	movslq %r14d,%rax
    2b5d:	48 c7 44 24 30 00 00 	movq   $0x0,0x30(%rsp)
    2b64:	00 00 
    2b66:	48 8d 0c 40          	lea    (%rax,%rax,2),%rcx
    2b6a:	c7 44 24 20 01 00 00 	movl   $0x1,0x20(%rsp)
    2b71:	00 
    2b72:	48 89 74 24 58       	mov    %rsi,0x58(%rsp)
    2b77:	89 54 24 40          	mov    %edx,0x40(%rsp)
    2b7b:	48 89 4c 24 28       	mov    %rcx,0x28(%rsp)
    2b80:	44 89 f1             	mov    %r14d,%ecx
    2b83:	89 7c 24 68          	mov    %edi,0x68(%rsp)
    2b87:	48 89 ef             	mov    %rbp,%rdi
    2b8a:	48 89 44 24 70       	mov    %rax,0x70(%rsp)
    2b8f:	4c 89 d8             	mov    %r11,%rax
    2b92:	44 29 f1             	sub    %r14d,%ecx
    2b95:	49 63 f1             	movslq %r9d,%rsi
    2b98:	41 83 fd 06          	cmp    $0x6,%r13d
    2b9c:	0f 86 a5 04 00 00    	jbe    3047 <main+0xd47>
    2ba2:	4c 8b 54 24 58       	mov    0x58(%rsp),%r10
    2ba7:	48 8d 14 76          	lea    (%rsi,%rsi,2),%rdx
    2bab:	4c 8d 1c 13          	lea    (%rbx,%rdx,1),%r11
    2baf:	4c 8d 44 15 00       	lea    0x0(%rbp,%rdx,1),%r8
    2bb4:	4d 8d 3c 02          	lea    (%r10,%rax,1),%r15
    2bb8:	4c 8d 54 13 30       	lea    0x30(%rbx,%rdx,1),%r10
    2bbd:	4c 39 d7             	cmp    %r10,%rdi
    2bc0:	4c 8d 57 30          	lea    0x30(%rdi),%r10
    2bc4:	41 0f 93 c4          	setae  %r12b
    2bc8:	4d 39 d3             	cmp    %r10,%r11
    2bcb:	41 0f 93 c2          	setae  %r10b
    2bcf:	45 09 d4             	or     %r10d,%r12d
    2bd2:	49 89 fa             	mov    %rdi,%r10
    2bd5:	4d 29 fa             	sub    %r15,%r10
    2bd8:	49 83 c2 02          	add    $0x2,%r10
    2bdc:	49 83 fa 2e          	cmp    $0x2e,%r10
    2be0:	41 0f 97 c2          	seta   %r10b
    2be4:	45 21 d4             	and    %r10d,%r12d
    2be7:	4d 89 c2             	mov    %r8,%r10
    2bea:	4d 29 fa             	sub    %r15,%r10
    2bed:	49 83 c2 02          	add    $0x2,%r10
    2bf1:	49 83 fa 2e          	cmp    $0x2e,%r10
    2bf5:	41 0f 97 c2          	seta   %r10b
    2bf9:	45 21 d4             	and    %r10d,%r12d
    2bfc:	49 89 c2             	mov    %rax,%r10
    2bff:	49 f7 d2             	not    %r10
    2c02:	49 01 d2             	add    %rdx,%r10
    2c05:	49 83 fa 2e          	cmp    $0x2e,%r10
    2c09:	41 0f 97 c2          	seta   %r10b
    2c0d:	45 84 d4             	test   %r10b,%r12b
    2c10:	0f 84 31 04 00 00    	je     3047 <main+0xd47>
    2c16:	4c 8d 54 13 03       	lea    0x3(%rbx,%rdx,1),%r10
    2c1b:	4c 89 c2             	mov    %r8,%rdx
    2c1e:	4c 29 d2             	sub    %r10,%rdx
    2c21:	48 83 c2 02          	add    $0x2,%rdx
    2c25:	48 83 fa 2e          	cmp    $0x2e,%rdx
    2c29:	0f 86 18 04 00 00    	jbe    3047 <main+0xd47>
    2c2f:	41 83 fd 0e          	cmp    $0xe,%r13d
    2c33:	0f 86 6c 1f 00 00    	jbe    4ba5 <main+0x28a5>
    2c39:	45 89 f2             	mov    %r14d,%r10d
    2c3c:	4c 8d 24 18          	lea    (%rax,%rbx,1),%r12
    2c40:	31 d2                	xor    %edx,%edx
    2c42:	41 c1 ea 04          	shr    $0x4,%r10d
    2c46:	4d 6b d2 30          	imul   $0x30,%r10,%r10
    2c4a:	f3 41 0f 6f 4c 14 10 	movdqu 0x10(%r12,%rdx,1),%xmm1
    2c51:	f3 41 0f 6f 44 14 20 	movdqu 0x20(%r12,%rdx,1),%xmm0
    2c58:	f3 41 0f 6f 3c 14    	movdqu (%r12,%rdx,1),%xmm7
    2c5e:	0f 11 4c 17 10       	movups %xmm1,0x10(%rdi,%rdx,1)
    2c63:	0f 11 3c 17          	movups %xmm7,(%rdi,%rdx,1)
    2c67:	0f 11 44 17 20       	movups %xmm0,0x20(%rdi,%rdx,1)
    2c6c:	f3 41 0f 6f 4c 13 10 	movdqu 0x10(%r11,%rdx,1),%xmm1
    2c73:	f3 41 0f 6f 44 13 20 	movdqu 0x20(%r11,%rdx,1),%xmm0
    2c7a:	f3 41 0f 6f 34 13    	movdqu (%r11,%rdx,1),%xmm6
    2c80:	41 0f 11 4c 10 10    	movups %xmm1,0x10(%r8,%rdx,1)
    2c86:	41 0f 11 34 10       	movups %xmm6,(%r8,%rdx,1)
    2c8b:	41 0f 11 44 10 20    	movups %xmm0,0x20(%r8,%rdx,1)
    2c91:	48 83 c2 30          	add    $0x30,%rdx
    2c95:	4c 39 d2             	cmp    %r10,%rdx
    2c98:	75 b0                	jne    2c4a <main+0x94a>
    2c9a:	44 89 f2             	mov    %r14d,%edx
    2c9d:	83 e2 f0             	and    $0xfffffff0,%edx
    2ca0:	41 89 d0             	mov    %edx,%r8d
    2ca3:	44 39 f2             	cmp    %r14d,%edx
    2ca6:	0f 84 a4 02 00 00    	je     2f50 <main+0xc50>
    2cac:	45 89 f2             	mov    %r14d,%r10d
    2caf:	41 29 d2             	sub    %edx,%r10d
    2cb2:	45 8d 5a ff          	lea    -0x1(%r10),%r11d
    2cb6:	41 83 fb 06          	cmp    $0x6,%r11d
    2cba:	76 6d                	jbe    2d29 <main+0xa29>
    2cbc:	4c 8b 7c 24 30       	mov    0x30(%rsp),%r15
    2cc1:	4c 01 c6             	add    %r8,%rsi
    2cc4:	48 8d 34 76          	lea    (%rsi,%rsi,2),%rsi
    2cc8:	4d 01 f8             	add    %r15,%r8
    2ccb:	4c 8d 1c 33          	lea    (%rbx,%rsi,1),%r11
    2ccf:	48 01 ee             	add    %rbp,%rsi
    2cd2:	4f 8d 04 40          	lea    (%r8,%r8,2),%r8
    2cd6:	4e 8d 24 03          	lea    (%rbx,%r8,1),%r12
    2cda:	49 01 e8             	add    %rbp,%r8
    2cdd:	f3 41 0f 7e 44 24 08 	movq   0x8(%r12),%xmm0
    2ce4:	f3 41 0f 7e 0c 24    	movq   (%r12),%xmm1
    2cea:	4d 8b 64 24 10       	mov    0x10(%r12),%r12
    2cef:	66 41 0f d6 08       	movq   %xmm1,(%r8)
    2cf4:	4d 89 60 10          	mov    %r12,0x10(%r8)
    2cf8:	66 41 0f d6 40 08    	movq   %xmm0,0x8(%r8)
    2cfe:	f3 41 0f 7e 03       	movq   (%r11),%xmm0
    2d03:	4d 8b 63 08          	mov    0x8(%r11),%r12
    2d07:	4d 8b 43 10          	mov    0x10(%r11),%r8
    2d0b:	4c 89 66 08          	mov    %r12,0x8(%rsi)
    2d0f:	4c 89 46 10          	mov    %r8,0x10(%rsi)
    2d13:	66 0f d6 06          	movq   %xmm0,(%rsi)
    2d17:	44 89 d6             	mov    %r10d,%esi
    2d1a:	83 e6 f8             	and    $0xfffffff8,%esi
    2d1d:	01 f2                	add    %esi,%edx
    2d1f:	41 80 e2 07          	and    $0x7,%r10b
    2d23:	0f 84 27 02 00 00    	je     2f50 <main+0xc50>
    2d29:	8d 34 11             	lea    (%rcx,%rdx,1),%esi
    2d2c:	48 63 f6             	movslq %esi,%rsi
    2d2f:	48 8d 34 76          	lea    (%rsi,%rsi,2),%rsi
    2d33:	4c 8d 04 33          	lea    (%rbx,%rsi,1),%r8
    2d37:	48 01 ee             	add    %rbp,%rsi
    2d3a:	45 0f b7 10          	movzwl (%r8),%r10d
    2d3e:	66 44 89 16          	mov    %r10w,(%rsi)
    2d42:	45 0f b6 40 02       	movzbl 0x2(%r8),%r8d
    2d47:	44 88 46 02          	mov    %r8b,0x2(%rsi)
    2d4b:	45 8d 04 11          	lea    (%r9,%rdx,1),%r8d
    2d4f:	8d 72 01             	lea    0x1(%rdx),%esi
    2d52:	4d 63 c0             	movslq %r8d,%r8
    2d55:	4f 8d 04 40          	lea    (%r8,%r8,2),%r8
    2d59:	4e 8d 14 03          	lea    (%rbx,%r8,1),%r10
    2d5d:	49 01 e8             	add    %rbp,%r8
    2d60:	45 0f b7 1a          	movzwl (%r10),%r11d
    2d64:	66 45 89 18          	mov    %r11w,(%r8)
    2d68:	45 0f b6 52 02       	movzbl 0x2(%r10),%r10d
    2d6d:	45 88 50 02          	mov    %r10b,0x2(%r8)
    2d71:	41 39 f6             	cmp    %esi,%r14d
    2d74:	0f 8e d6 01 00 00    	jle    2f50 <main+0xc50>
    2d7a:	44 8d 04 31          	lea    (%rcx,%rsi,1),%r8d
    2d7e:	44 01 ce             	add    %r9d,%esi
    2d81:	4d 63 c0             	movslq %r8d,%r8
    2d84:	48 63 f6             	movslq %esi,%rsi
    2d87:	4f 8d 04 40          	lea    (%r8,%r8,2),%r8
    2d8b:	48 8d 34 76          	lea    (%rsi,%rsi,2),%rsi
    2d8f:	4e 8d 14 03          	lea    (%rbx,%r8,1),%r10
    2d93:	49 01 e8             	add    %rbp,%r8
    2d96:	45 0f b7 1a          	movzwl (%r10),%r11d
    2d9a:	66 45 89 18          	mov    %r11w,(%r8)
    2d9e:	45 0f b6 52 02       	movzbl 0x2(%r10),%r10d
    2da3:	45 88 50 02          	mov    %r10b,0x2(%r8)
    2da7:	4c 8d 14 33          	lea    (%rbx,%rsi,1),%r10
    2dab:	48 01 ee             	add    %rbp,%rsi
    2dae:	44 8d 42 02          	lea    0x2(%rdx),%r8d
    2db2:	45 0f b7 1a          	movzwl (%r10),%r11d
    2db6:	66 44 89 1e          	mov    %r11w,(%rsi)
    2dba:	45 0f b6 52 02       	movzbl 0x2(%r10),%r10d
    2dbf:	44 88 56 02          	mov    %r10b,0x2(%rsi)
    2dc3:	45 39 c6             	cmp    %r8d,%r14d
    2dc6:	0f 8e 84 01 00 00    	jle    2f50 <main+0xc50>
    2dcc:	42 8d 34 01          	lea    (%rcx,%r8,1),%esi
    2dd0:	45 01 c8             	add    %r9d,%r8d
    2dd3:	48 63 f6             	movslq %esi,%rsi
    2dd6:	4d 63 c0             	movslq %r8d,%r8
    2dd9:	48 8d 34 76          	lea    (%rsi,%rsi,2),%rsi
    2ddd:	4f 8d 04 40          	lea    (%r8,%r8,2),%r8
    2de1:	4c 8d 14 33          	lea    (%rbx,%rsi,1),%r10
    2de5:	48 01 ee             	add    %rbp,%rsi
    2de8:	45 0f b7 1a          	movzwl (%r10),%r11d
    2dec:	66 44 89 1e          	mov    %r11w,(%rsi)
    2df0:	45 0f b6 52 02       	movzbl 0x2(%r10),%r10d
    2df5:	44 88 56 02          	mov    %r10b,0x2(%rsi)
    2df9:	4e 8d 14 03          	lea    (%rbx,%r8,1),%r10
    2dfd:	49 01 e8             	add    %rbp,%r8
    2e00:	8d 72 03             	lea    0x3(%rdx),%esi
    2e03:	45 0f b7 1a          	movzwl (%r10),%r11d
    2e07:	66 45 89 18          	mov    %r11w,(%r8)
    2e0b:	45 0f b6 52 02       	movzbl 0x2(%r10),%r10d
    2e10:	45 88 50 02          	mov    %r10b,0x2(%r8)
    2e14:	41 39 f6             	cmp    %esi,%r14d
    2e17:	0f 8e 33 01 00 00    	jle    2f50 <main+0xc50>
    2e1d:	44 8d 04 31          	lea    (%rcx,%rsi,1),%r8d
    2e21:	44 01 ce             	add    %r9d,%esi
    2e24:	4d 63 c0             	movslq %r8d,%r8
    2e27:	48 63 f6             	movslq %esi,%rsi
    2e2a:	4f 8d 04 40          	lea    (%r8,%r8,2),%r8
    2e2e:	48 8d 34 76          	lea    (%rsi,%rsi,2),%rsi
    2e32:	4e 8d 14 03          	lea    (%rbx,%r8,1),%r10
    2e36:	49 01 e8             	add    %rbp,%r8
    2e39:	45 0f b7 1a          	movzwl (%r10),%r11d
    2e3d:	66 45 89 18          	mov    %r11w,(%r8)
    2e41:	45 0f b6 52 02       	movzbl 0x2(%r10),%r10d
    2e46:	45 88 50 02          	mov    %r10b,0x2(%r8)
    2e4a:	4c 8d 14 33          	lea    (%rbx,%rsi,1),%r10
    2e4e:	48 01 ee             	add    %rbp,%rsi
    2e51:	44 8d 42 04          	lea    0x4(%rdx),%r8d
    2e55:	45 0f b7 1a          	movzwl (%r10),%r11d
    2e59:	66 44 89 1e          	mov    %r11w,(%rsi)
    2e5d:	45 0f b6 52 02       	movzbl 0x2(%r10),%r10d
    2e62:	44 88 56 02          	mov    %r10b,0x2(%rsi)
    2e66:	45 39 c6             	cmp    %r8d,%r14d
    2e69:	0f 8e e1 00 00 00    	jle    2f50 <main+0xc50>
    2e6f:	42 8d 34 01          	lea    (%rcx,%r8,1),%esi
    2e73:	45 01 c8             	add    %r9d,%r8d
    2e76:	48 63 f6             	movslq %esi,%rsi
    2e79:	4d 63 c0             	movslq %r8d,%r8
    2e7c:	48 8d 34 76          	lea    (%rsi,%rsi,2),%rsi
    2e80:	4f 8d 04 40          	lea    (%r8,%r8,2),%r8
    2e84:	4c 8d 14 33          	lea    (%rbx,%rsi,1),%r10
    2e88:	48 01 ee             	add    %rbp,%rsi
    2e8b:	45 0f b7 1a          	movzwl (%r10),%r11d
    2e8f:	66 44 89 1e          	mov    %r11w,(%rsi)
    2e93:	45 0f b6 52 02       	movzbl 0x2(%r10),%r10d
    2e98:	44 88 56 02          	mov    %r10b,0x2(%rsi)
    2e9c:	4e 8d 14 03          	lea    (%rbx,%r8,1),%r10
    2ea0:	49 01 e8             	add    %rbp,%r8
    2ea3:	8d 72 05             	lea    0x5(%rdx),%esi
    2ea6:	45 0f b7 1a          	movzwl (%r10),%r11d
    2eaa:	66 45 89 18          	mov    %r11w,(%r8)
    2eae:	45 0f b6 52 02       	movzbl 0x2(%r10),%r10d
    2eb3:	45 88 50 02          	mov    %r10b,0x2(%r8)
    2eb7:	41 39 f6             	cmp    %esi,%r14d
    2eba:	0f 8e 90 00 00 00    	jle    2f50 <main+0xc50>
    2ec0:	44 8d 04 31          	lea    (%rcx,%rsi,1),%r8d
    2ec4:	44 01 ce             	add    %r9d,%esi
    2ec7:	83 c2 06             	add    $0x6,%edx
    2eca:	4d 63 c0             	movslq %r8d,%r8
    2ecd:	48 63 f6             	movslq %esi,%rsi
    2ed0:	4f 8d 04 40          	lea    (%r8,%r8,2),%r8
    2ed4:	48 8d 34 76          	lea    (%rsi,%rsi,2),%rsi
    2ed8:	4e 8d 14 03          	lea    (%rbx,%r8,1),%r10
    2edc:	49 01 e8             	add    %rbp,%r8
    2edf:	45 0f b7 1a          	movzwl (%r10),%r11d
    2ee3:	66 45 89 18          	mov    %r11w,(%r8)
    2ee7:	45 0f b6 52 02       	movzbl 0x2(%r10),%r10d
    2eec:	45 88 50 02          	mov    %r10b,0x2(%r8)
    2ef0:	4c 8d 04 33          	lea    (%rbx,%rsi,1),%r8
    2ef4:	48 01 ee             	add    %rbp,%rsi
    2ef7:	45 0f b7 10          	movzwl (%r8),%r10d
    2efb:	66 44 89 16          	mov    %r10w,(%rsi)
    2eff:	45 0f b6 40 02       	movzbl 0x2(%r8),%r8d
    2f04:	44 88 46 02          	mov    %r8b,0x2(%rsi)
    2f08:	41 39 d6             	cmp    %edx,%r14d
    2f0b:	7e 43                	jle    2f50 <main+0xc50>
    2f0d:	8d 34 11             	lea    (%rcx,%rdx,1),%esi
    2f10:	44 01 ca             	add    %r9d,%edx
    2f13:	48 63 f6             	movslq %esi,%rsi
    2f16:	48 63 d2             	movslq %edx,%rdx
    2f19:	48 8d 34 76          	lea    (%rsi,%rsi,2),%rsi
    2f1d:	48 8d 14 52          	lea    (%rdx,%rdx,2),%rdx
    2f21:	4c 8d 04 33          	lea    (%rbx,%rsi,1),%r8
    2f25:	48 01 ee             	add    %rbp,%rsi
    2f28:	45 0f b7 10          	movzwl (%r8),%r10d
    2f2c:	66 44 89 16          	mov    %r10w,(%rsi)
    2f30:	45 0f b6 40 02       	movzbl 0x2(%r8),%r8d
    2f35:	44 88 46 02          	mov    %r8b,0x2(%rsi)
    2f39:	48 8d 34 13          	lea    (%rbx,%rdx,1),%rsi
    2f3d:	48 01 ea             	add    %rbp,%rdx
    2f40:	44 0f b7 06          	movzwl (%rsi),%r8d
    2f44:	66 44 89 02          	mov    %r8w,(%rdx)
    2f48:	0f b6 76 02          	movzbl 0x2(%rsi),%esi
    2f4c:	40 88 72 02          	mov    %sil,0x2(%rdx)
    2f50:	48 8b 74 24 50       	mov    0x50(%rsp),%rsi
    2f55:	44 8b 5c 24 40       	mov    0x40(%rsp),%r11d
    2f5a:	8b 54 24 20          	mov    0x20(%rsp),%edx
    2f5e:	48 01 74 24 28       	add    %rsi,0x28(%rsp)
    2f63:	48 01 f0             	add    %rsi,%rax
    2f66:	44 01 d9             	add    %r11d,%ecx
    2f69:	48 01 f7             	add    %rsi,%rdi
    2f6c:	44 8b 5c 24 08       	mov    0x8(%rsp),%r11d
    2f71:	8b 74 24 18          	mov    0x18(%rsp),%esi
    2f75:	83 c2 02             	add    $0x2,%edx
    2f78:	45 01 d9             	add    %r11d,%r9d
    2f7b:	4c 8b 5c 24 38       	mov    0x38(%rsp),%r11
    2f80:	4c 01 5c 24 30       	add    %r11,0x30(%rsp)
    2f85:	39 f2                	cmp    %esi,%edx
    2f87:	0f 8d fc 1b 00 00    	jge    4b89 <main+0x2889>
    2f8d:	89 54 24 20          	mov    %edx,0x20(%rsp)
    2f91:	e9 fc fb ff ff       	jmp    2b92 <main+0x892>
    2f96:	80 7a 02 00          	cmpb   $0x0,0x2(%rdx)
    2f9a:	75 2d                	jne    2fc9 <main+0xcc9>
    2f9c:	39 dd                	cmp    %ebx,%ebp
    2f9e:	0f 8e 81 1c 00 00    	jle    4c25 <main+0x2925>
    2fa4:	4b 8b 7c 34 08       	mov    0x8(%r12,%r14,1),%rdi
    2fa9:	ba 0a 00 00 00       	mov    $0xa,%edx
    2fae:	31 f6                	xor    %esi,%esi
    2fb0:	e8 3b f2 ff ff       	call   21f0 <strtol@plt>
    2fb5:	89 44 24 14          	mov    %eax,0x14(%rsp)
    2fb9:	e9 bb f3 ff ff       	jmp    2379 <main+0x79>
    2fbe:	48 8b 54 24 18       	mov    0x18(%rsp),%rdx
    2fc3:	80 7a 01 6b          	cmpb   $0x6b,0x1(%rdx)
    2fc7:	74 cd                	je     2f96 <main+0xc96>
    2fc9:	83 f9 2d             	cmp    $0x2d,%ecx
    2fcc:	0f 85 0b f4 ff ff    	jne    23dd <main+0xdd>
    2fd2:	80 7a 01 6f          	cmpb   $0x6f,0x1(%rdx)
    2fd6:	0f 85 01 f4 ff ff    	jne    23dd <main+0xdd>
    2fdc:	80 7a 02 00          	cmpb   $0x0,0x2(%rdx)
    2fe0:	0f 85 f7 f3 ff ff    	jne    23dd <main+0xdd>
    2fe6:	39 dd                	cmp    %ebx,%ebp
    2fe8:	0f 8e 29 1c 00 00    	jle    4c17 <main+0x2917>
    2fee:	4d 85 ff             	test   %r15,%r15
    2ff1:	74 08                	je     2ffb <main+0xcfb>
    2ff3:	4c 89 ff             	mov    %r15,%rdi
    2ff6:	e8 95 f1 ff ff       	call   2190 <free@plt>
    2ffb:	4b 8b 7c 34 08       	mov    0x8(%r12,%r14,1),%rdi
    3000:	e8 bb f2 ff ff       	call   22c0 <strdup@plt>
    3005:	49 89 c7             	mov    %rax,%r15
    3008:	e9 6c f3 ff ff       	jmp    2379 <main+0x79>
    300d:	4c 89 f7             	mov    %r14,%rdi
    3010:	e8 8b f0 ff ff       	call   20a0 <strlen@plt>
    3015:	48 8d 78 40          	lea    0x40(%rax),%rdi
    3019:	e8 22 f0 ff ff       	call   2040 <_Znam@plt>
    301e:	49 8b 75 00          	mov    0x0(%r13),%rsi
    3022:	49 89 c7             	mov    %rax,%r15
    3025:	8b 05 69 31 03 00    	mov    0x33169(%rip),%eax        # 36194 <_ZL11stbi__bmask+0x474>
    302b:	4c 89 ff             	mov    %r15,%rdi
    302e:	41 89 07             	mov    %eax,(%r15)
    3031:	e8 7a f2 ff ff       	call   22b0 <strcat@plt>
    3036:	e9 3e f3 ff ff       	jmp    2379 <main+0x79>
    303b:	45 31 f6             	xor    %r14d,%r14d
    303e:	31 db                	xor    %ebx,%ebx
    3040:	31 f6                	xor    %esi,%esi
    3042:	e9 6c fa ff ff       	jmp    2ab3 <main+0x7b3>
    3047:	48 8d 34 76          	lea    (%rsi,%rsi,2),%rsi
    304b:	48 89 c2             	mov    %rax,%rdx
    304e:	44 0f b7 04 13       	movzwl (%rbx,%rdx,1),%r8d
    3053:	4c 8b 5c 24 28       	mov    0x28(%rsp),%r11
    3058:	66 44 89 44 15 00    	mov    %r8w,0x0(%rbp,%rdx,1)
    305e:	44 0f b6 44 13 02    	movzbl 0x2(%rbx,%rdx,1),%r8d
    3064:	44 88 44 15 02       	mov    %r8b,0x2(%rbp,%rdx,1)
    3069:	44 0f b7 04 33       	movzwl (%rbx,%rsi,1),%r8d
    306e:	48 83 c2 03          	add    $0x3,%rdx
    3072:	66 44 89 44 35 00    	mov    %r8w,0x0(%rbp,%rsi,1)
    3078:	44 0f b6 44 33 02    	movzbl 0x2(%rbx,%rsi,1),%r8d
    307e:	44 88 44 35 02       	mov    %r8b,0x2(%rbp,%rsi,1)
    3083:	48 83 c6 03          	add    $0x3,%rsi
    3087:	4c 39 da             	cmp    %r11,%rdx
    308a:	75 c2                	jne    304e <main+0xd4e>
    308c:	e9 bf fe ff ff       	jmp    2f50 <main+0xc50>
    3091:	f3 0f 59 0d 47 2f 03 	mulss  0x32f47(%rip),%xmm1        # 35fe0 <_ZL11stbi__bmask+0x2c0>
    3098:	00 
    3099:	0f 28 c1             	movaps %xmm1,%xmm0
    309c:	e9 df f5 ff ff       	jmp    2680 <main+0x380>
    30a1:	f3 0f 10 05 e7 30 03 	movss  0x330e7(%rip),%xmm0        # 36190 <_ZL11stbi__bmask+0x470>
    30a8:	00 
    30a9:	41 bc 07 00 00 00    	mov    $0x7,%r12d
    30af:	41 bf 03 00 00 00    	mov    $0x3,%r15d
    30b5:	41 bd 07 00 00 00    	mov    $0x7,%r13d
    30bb:	e9 d6 f5 ff ff       	jmp    2696 <main+0x396>
    30c0:	45 85 ff             	test   %r15d,%r15d
    30c3:	0f 8f 47 fa ff ff    	jg     2b10 <main+0x810>
    30c9:	83 7c 24 14 00       	cmpl   $0x0,0x14(%rsp)
    30ce:	0f 8f a7 00 00 00    	jg     317b <main+0xe7b>
    30d4:	39 7c 24 14          	cmp    %edi,0x14(%rsp)
    30d8:	7e 09                	jle    30e3 <main+0xde3>
    30da:	45 85 f6             	test   %r14d,%r14d
    30dd:	0f 8f ab 00 00 00    	jg     318e <main+0xe8e>
    30e3:	43 8d 04 36          	lea    (%r14,%r14,1),%eax
    30e7:	89 44 24 08          	mov    %eax,0x8(%rsp)
    30eb:	44 8b 4c 24 08       	mov    0x8(%rsp),%r9d
    30f0:	8b 54 24 14          	mov    0x14(%rsp),%edx
    30f4:	49 89 e8             	mov    %rbp,%r8
    30f7:	44 89 f6             	mov    %r14d,%esi
    30fa:	48 8b 7c 24 48       	mov    0x48(%rsp),%rdi
    30ff:	b9 03 00 00 00       	mov    $0x3,%ecx
    3104:	45 01 f1             	add    %r14d,%r9d
    3107:	e8 b4 f2 02 00       	call   323c0 <stbi_write_png>
    310c:	48 8b 84 24 a8 00 00 	mov    0xa8(%rsp),%rax
    3113:	00 
    3114:	64 48 2b 04 25 28 00 	sub    %fs:0x28,%rax
    311b:	00 00 
    311d:	0f 85 9b 1a 00 00    	jne    4bbe <main+0x28be>
    3123:	48 81 c4 b8 00 00 00 	add    $0xb8,%rsp
    312a:	31 c0                	xor    %eax,%eax
    312c:	5b                   	pop    %rbx
    312d:	5d                   	pop    %rbp
    312e:	41 5c                	pop    %r12
    3130:	41 5d                	pop    %r13
    3132:	41 5e                	pop    %r14
    3134:	41 5f                	pop    %r15
    3136:	c3                   	ret    
    3137:	ba 06 00 00 00       	mov    $0x6,%edx
    313c:	48 8d 35 bd 0b 03 00 	lea    0x30bbd(%rip),%rsi        # 33d00 <_IO_stdin_used+0xd00>
    3143:	48 8d 3d b6 70 03 00 	lea    0x370b6(%rip),%rdi        # 3a200 <_ZSt4cout@GLIBCXX_3.4>
    314a:	e8 11 f0 ff ff       	call   2160 <_ZSt16__ostream_insertIcSt11char_traitsIcEERSt13basic_ostreamIT_T0_ES6_PKS3_l@plt>
    314f:	66 0f ef c0          	pxor   %xmm0,%xmm0
    3153:	48 8d 3d a6 70 03 00 	lea    0x370a6(%rip),%rdi        # 3a200 <_ZSt4cout@GLIBCXX_3.4>
    315a:	e8 01 f1 ff ff       	call   2260 <_ZNSo9_M_insertIdEERSoT_@plt>
    315f:	48 89 c7             	mov    %rax,%rdi
    3162:	e8 29 6f 00 00       	call   a090 <_ZSt4endlIcSt11char_traitsIcEERSt13basic_ostreamIT_T0_ES6_.isra.0>
    3167:	66 0f ef c9          	pxor   %xmm1,%xmm1
    316b:	e9 68 f7 ff ff       	jmp    28d8 <main+0x5d8>
    3170:	83 7c 24 14 00       	cmpl   $0x0,0x14(%rsp)
    3175:	0f 8e 68 ff ff ff    	jle    30e3 <main+0xde3>
    317b:	39 7c 24 14          	cmp    %edi,0x14(%rsp)
    317f:	0f 8e 5a 1a 00 00    	jle    4bdf <main+0x28df>
    3185:	45 85 f6             	test   %r14d,%r14d
    3188:	0f 8e 51 1a 00 00    	jle    4bdf <main+0x28df>
    318e:	43 8d 0c 36          	lea    (%r14,%r14,1),%ecx
    3192:	49 63 c6             	movslq %r14d,%rax
    3195:	45 8d 6e ff          	lea    -0x1(%r14),%r13d
    3199:	89 4c 24 08          	mov    %ecx,0x8(%rsp)
    319d:	8b 4c 24 14          	mov    0x14(%rsp),%ecx
    31a1:	83 e9 01             	sub    $0x1,%ecx
    31a4:	89 4c 24 20          	mov    %ecx,0x20(%rsp)
    31a8:	44 8d 5f 01          	lea    0x1(%rdi),%r11d
    31ac:	39 7c 24 14          	cmp    %edi,0x14(%rsp)
    31b0:	0f 8e 6c 04 00 00    	jle    3622 <main+0x1322>
    31b6:	44 39 5c 24 20       	cmp    %r11d,0x20(%rsp)
    31bb:	0f 8e 61 04 00 00    	jle    3622 <main+0x1322>
    31c1:	41 0f af fe          	imul   %r14d,%edi
    31c5:	48 63 4c 24 08       	movslq 0x8(%rsp),%rcx
    31ca:	44 89 5c 24 18       	mov    %r11d,0x18(%rsp)
    31cf:	45 0f af de          	imul   %r14d,%r11d
    31d3:	48 89 44 24 68       	mov    %rax,0x68(%rsp)
    31d8:	48 89 4c 24 40       	mov    %rcx,0x40(%rsp)
    31dd:	48 8d 0c 49          	lea    (%rcx,%rcx,2),%rcx
    31e1:	89 fa                	mov    %edi,%edx
    31e3:	48 63 ff             	movslq %edi,%rdi
    31e6:	48 89 4c 24 50       	mov    %rcx,0x50(%rsp)
    31eb:	44 01 f2             	add    %r14d,%edx
    31ee:	48 89 7c 24 28       	mov    %rdi,0x28(%rsp)
    31f3:	48 8d 0c 7f          	lea    (%rdi,%rdi,2),%rcx
    31f7:	45 89 dc             	mov    %r11d,%r12d
    31fa:	89 54 24 30          	mov    %edx,0x30(%rsp)
    31fe:	48 8d 14 38          	lea    (%rax,%rdi,1),%rdx
    3202:	48 8d 3c 52          	lea    (%rdx,%rdx,2),%rdi
    3206:	48 89 7c 24 38       	mov    %rdi,0x38(%rsp)
    320b:	48 8d 7b 03          	lea    0x3(%rbx),%rdi
    320f:	48 89 7c 24 58       	mov    %rdi,0x58(%rsp)
    3214:	48 8d 7d 30          	lea    0x30(%rbp),%rdi
    3218:	48 89 7c 24 60       	mov    %rdi,0x60(%rsp)
    321d:	49 63 d4             	movslq %r12d,%rdx
    3220:	41 83 fd 06          	cmp    $0x6,%r13d
    3224:	0f 86 a4 0b 00 00    	jbe    3dce <main+0x1ace>
    322a:	4c 8b 5c 24 60       	mov    0x60(%rsp),%r11
    322f:	48 8d 3c 52          	lea    (%rdx,%rdx,2),%rdi
    3233:	48 8b 44 24 58       	mov    0x58(%rsp),%rax
    3238:	4c 8d 44 0d 00       	lea    0x0(%rbp,%rcx,1),%r8
    323d:	4c 8d 0c 3b          	lea    (%rbx,%rdi,1),%r9
    3241:	48 8d 74 3d 00       	lea    0x0(%rbp,%rdi,1),%rsi
    3246:	4d 8d 14 0b          	lea    (%r11,%rcx,1),%r10
    324a:	48 01 c8             	add    %rcx,%rax
    324d:	4d 39 d1             	cmp    %r10,%r9
    3250:	4c 8d 54 3b 30       	lea    0x30(%rbx,%rdi,1),%r10
    3255:	41 0f 93 c3          	setae  %r11b
    3259:	4d 39 d0             	cmp    %r10,%r8
    325c:	41 0f 93 c2          	setae  %r10b
    3260:	45 09 d3             	or     %r10d,%r11d
    3263:	4d 89 c2             	mov    %r8,%r10
    3266:	49 29 c2             	sub    %rax,%r10
    3269:	49 83 c2 02          	add    $0x2,%r10
    326d:	49 83 fa 2e          	cmp    $0x2e,%r10
    3271:	41 0f 97 c2          	seta   %r10b
    3275:	45 21 d3             	and    %r10d,%r11d
    3278:	49 89 f2             	mov    %rsi,%r10
    327b:	49 29 c2             	sub    %rax,%r10
    327e:	49 83 c2 02          	add    $0x2,%r10
    3282:	49 83 fa 2e          	cmp    $0x2e,%r10
    3286:	41 0f 97 c2          	seta   %r10b
    328a:	45 21 da             	and    %r11d,%r10d
    328d:	49 89 cb             	mov    %rcx,%r11
    3290:	49 f7 d3             	not    %r11
    3293:	49 01 fb             	add    %rdi,%r11
    3296:	49 83 fb 2e          	cmp    $0x2e,%r11
    329a:	41 0f 97 c3          	seta   %r11b
    329e:	45 84 da             	test   %r11b,%r10b
    32a1:	0f 84 27 0b 00 00    	je     3dce <main+0x1ace>
    32a7:	4c 8d 54 3b 03       	lea    0x3(%rbx,%rdi,1),%r10
    32ac:	48 89 f7             	mov    %rsi,%rdi
    32af:	4c 29 d7             	sub    %r10,%rdi
    32b2:	48 83 c7 02          	add    $0x2,%rdi
    32b6:	48 83 ff 2e          	cmp    $0x2e,%rdi
    32ba:	0f 86 0e 0b 00 00    	jbe    3dce <main+0x1ace>
    32c0:	41 83 fd 0e          	cmp    $0xe,%r13d
    32c4:	0f 86 08 19 00 00    	jbe    4bd2 <main+0x28d2>
    32ca:	45 89 f2             	mov    %r14d,%r10d
    32cd:	4c 8d 1c 19          	lea    (%rcx,%rbx,1),%r11
    32d1:	31 ff                	xor    %edi,%edi
    32d3:	41 c1 ea 04          	shr    $0x4,%r10d
    32d7:	4d 6b d2 30          	imul   $0x30,%r10,%r10
    32db:	f3 41 0f 6f 4c 3b 10 	movdqu 0x10(%r11,%rdi,1),%xmm1
    32e2:	f3 41 0f 6f 44 3b 20 	movdqu 0x20(%r11,%rdi,1),%xmm0
    32e9:	f3 41 0f 6f 3c 3b    	movdqu (%r11,%rdi,1),%xmm7
    32ef:	41 0f 11 4c 38 10    	movups %xmm1,0x10(%r8,%rdi,1)
    32f5:	41 0f 11 3c 38       	movups %xmm7,(%r8,%rdi,1)
    32fa:	41 0f 11 44 38 20    	movups %xmm0,0x20(%r8,%rdi,1)
    3300:	f3 41 0f 6f 4c 39 10 	movdqu 0x10(%r9,%rdi,1),%xmm1
    3307:	f3 41 0f 6f 44 39 20 	movdqu 0x20(%r9,%rdi,1),%xmm0
    330e:	f3 41 0f 6f 2c 39    	movdqu (%r9,%rdi,1),%xmm5
    3314:	0f 11 4c 3e 10       	movups %xmm1,0x10(%rsi,%rdi,1)
    3319:	0f 11 2c 3e          	movups %xmm5,(%rsi,%rdi,1)
    331d:	0f 11 44 3e 20       	movups %xmm0,0x20(%rsi,%rdi,1)
    3322:	48 83 c7 30          	add    $0x30,%rdi
    3326:	4c 39 d7             	cmp    %r10,%rdi
    3329:	75 b0                	jne    32db <main+0xfdb>
    332b:	44 89 f6             	mov    %r14d,%esi
    332e:	83 e6 f0             	and    $0xfffffff0,%esi
    3331:	41 89 f2             	mov    %esi,%r10d
    3334:	44 39 f6             	cmp    %r14d,%esi
    3337:	0f 84 9e 02 00 00    	je     35db <main+0x12db>
    333d:	45 89 f0             	mov    %r14d,%r8d
    3340:	41 29 f0             	sub    %esi,%r8d
    3343:	41 8d 78 ff          	lea    -0x1(%r8),%edi
    3347:	83 ff 06             	cmp    $0x6,%edi
    334a:	76 64                	jbe    33b0 <main+0x10b0>
    334c:	48 8b 44 24 28       	mov    0x28(%rsp),%rax
    3351:	4a 8d 3c 12          	lea    (%rdx,%r10,1),%rdi
    3355:	48 8d 3c 7f          	lea    (%rdi,%rdi,2),%rdi
    3359:	4a 8d 14 10          	lea    (%rax,%r10,1),%rdx
    335d:	4c 8d 0c 3b          	lea    (%rbx,%rdi,1),%r9
    3361:	48 01 ef             	add    %rbp,%rdi
    3364:	48 8d 14 52          	lea    (%rdx,%rdx,2),%rdx
    3368:	4c 8d 14 13          	lea    (%rbx,%rdx,1),%r10
    336c:	48 01 ea             	add    %rbp,%rdx
    336f:	4d 8b 5a 08          	mov    0x8(%r10),%r11
    3373:	f3 41 0f 7e 02       	movq   (%r10),%xmm0
    3378:	4d 8b 52 10          	mov    0x10(%r10),%r10
    337c:	4c 89 5a 08          	mov    %r11,0x8(%rdx)
    3380:	4c 89 52 10          	mov    %r10,0x10(%rdx)
    3384:	66 0f d6 02          	movq   %xmm0,(%rdx)
    3388:	49 8b 51 10          	mov    0x10(%r9),%rdx
    338c:	4d 8b 19             	mov    (%r9),%r11
    338f:	4d 8b 51 08          	mov    0x8(%r9),%r10
    3393:	48 89 57 10          	mov    %rdx,0x10(%rdi)
    3397:	44 89 c2             	mov    %r8d,%edx
    339a:	83 e2 f8             	and    $0xfffffff8,%edx
    339d:	4c 89 1f             	mov    %r11,(%rdi)
    33a0:	01 d6                	add    %edx,%esi
    33a2:	41 80 e0 07          	and    $0x7,%r8b
    33a6:	4c 89 57 08          	mov    %r10,0x8(%rdi)
    33aa:	0f 84 2b 02 00 00    	je     35db <main+0x12db>
    33b0:	8b 54 24 30          	mov    0x30(%rsp),%edx
    33b4:	44 29 f2             	sub    %r14d,%edx
    33b7:	8d 3c 32             	lea    (%rdx,%rsi,1),%edi
    33ba:	48 63 ff             	movslq %edi,%rdi
    33bd:	48 8d 3c 7f          	lea    (%rdi,%rdi,2),%rdi
    33c1:	4c 8d 04 3b          	lea    (%rbx,%rdi,1),%r8
    33c5:	48 01 ef             	add    %rbp,%rdi
    33c8:	45 0f b7 08          	movzwl (%r8),%r9d
    33cc:	66 44 89 0f          	mov    %r9w,(%rdi)
    33d0:	45 0f b6 40 02       	movzbl 0x2(%r8),%r8d
    33d5:	44 88 47 02          	mov    %r8b,0x2(%rdi)
    33d9:	45 8d 04 34          	lea    (%r12,%rsi,1),%r8d
    33dd:	8d 7e 01             	lea    0x1(%rsi),%edi
    33e0:	4d 63 c0             	movslq %r8d,%r8
    33e3:	4f 8d 04 40          	lea    (%r8,%r8,2),%r8
    33e7:	4e 8d 0c 03          	lea    (%rbx,%r8,1),%r9
    33eb:	49 01 e8             	add    %rbp,%r8
    33ee:	45 0f b7 11          	movzwl (%r9),%r10d
    33f2:	66 45 89 10          	mov    %r10w,(%r8)
    33f6:	45 0f b6 49 02       	movzbl 0x2(%r9),%r9d
    33fb:	45 88 48 02          	mov    %r9b,0x2(%r8)
    33ff:	41 39 fe             	cmp    %edi,%r14d
    3402:	0f 8e d3 01 00 00    	jle    35db <main+0x12db>
    3408:	44 8d 04 3a          	lea    (%rdx,%rdi,1),%r8d
    340c:	44 01 e7             	add    %r12d,%edi
    340f:	4d 63 c0             	movslq %r8d,%r8
    3412:	48 63 ff             	movslq %edi,%rdi
    3415:	4f 8d 04 40          	lea    (%r8,%r8,2),%r8
    3419:	48 8d 3c 7f          	lea    (%rdi,%rdi,2),%rdi
    341d:	4e 8d 0c 03          	lea    (%rbx,%r8,1),%r9
    3421:	49 01 e8             	add    %rbp,%r8
    3424:	45 0f b7 11          	movzwl (%r9),%r10d
    3428:	66 45 89 10          	mov    %r10w,(%r8)
    342c:	45 0f b6 49 02       	movzbl 0x2(%r9),%r9d
    3431:	45 88 48 02          	mov    %r9b,0x2(%r8)
    3435:	4c 8d 0c 3b          	lea    (%rbx,%rdi,1),%r9
    3439:	48 01 ef             	add    %rbp,%rdi
    343c:	44 8d 46 02          	lea    0x2(%rsi),%r8d
    3440:	45 0f b7 11          	movzwl (%r9),%r10d
    3444:	66 44 89 17          	mov    %r10w,(%rdi)
    3448:	45 0f b6 49 02       	movzbl 0x2(%r9),%r9d
    344d:	44 88 4f 02          	mov    %r9b,0x2(%rdi)
    3451:	45 39 c6             	cmp    %r8d,%r14d
    3454:	0f 8e 81 01 00 00    	jle    35db <main+0x12db>
    345a:	42 8d 3c 02          	lea    (%rdx,%r8,1),%edi
    345e:	45 01 e0             	add    %r12d,%r8d
    3461:	48 63 ff             	movslq %edi,%rdi
    3464:	4d 63 c0             	movslq %r8d,%r8
    3467:	48 8d 3c 7f          	lea    (%rdi,%rdi,2),%rdi
    346b:	4f 8d 04 40          	lea    (%r8,%r8,2),%r8
    346f:	4c 8d 0c 3b          	lea    (%rbx,%rdi,1),%r9
    3473:	48 01 ef             	add    %rbp,%rdi
    3476:	45 0f b7 11          	movzwl (%r9),%r10d
    347a:	66 44 89 17          	mov    %r10w,(%rdi)
    347e:	45 0f b6 49 02       	movzbl 0x2(%r9),%r9d
    3483:	44 88 4f 02          	mov    %r9b,0x2(%rdi)
    3487:	4e 8d 0c 03          	lea    (%rbx,%r8,1),%r9
    348b:	49 01 e8             	add    %rbp,%r8
    348e:	8d 7e 03             	lea    0x3(%rsi),%edi
    3491:	45 0f b7 11          	movzwl (%r9),%r10d
    3495:	66 45 89 10          	mov    %r10w,(%r8)
    3499:	45 0f b6 49 02       	movzbl 0x2(%r9),%r9d
    349e:	45 88 48 02          	mov    %r9b,0x2(%r8)
    34a2:	41 39 fe             	cmp    %edi,%r14d
    34a5:	0f 8e 30 01 00 00    	jle    35db <main+0x12db>
    34ab:	44 8d 04 3a          	lea    (%rdx,%rdi,1),%r8d
    34af:	44 01 e7             	add    %r12d,%edi
    34b2:	4d 63 c0             	movslq %r8d,%r8
    34b5:	48 63 ff             	movslq %edi,%rdi
    34b8:	4f 8d 04 40          	lea    (%r8,%r8,2),%r8
    34bc:	48 8d 3c 7f          	lea    (%rdi,%rdi,2),%rdi
    34c0:	4e 8d 0c 03          	lea    (%rbx,%r8,1),%r9
    34c4:	49 01 e8             	add    %rbp,%r8
    34c7:	45 0f b7 11          	movzwl (%r9),%r10d
    34cb:	66 45 89 10          	mov    %r10w,(%r8)
    34cf:	45 0f b6 49 02       	movzbl 0x2(%r9),%r9d
    34d4:	45 88 48 02          	mov    %r9b,0x2(%r8)
    34d8:	4c 8d 0c 3b          	lea    (%rbx,%rdi,1),%r9
    34dc:	48 01 ef             	add    %rbp,%rdi
    34df:	44 8d 46 04          	lea    0x4(%rsi),%r8d
    34e3:	45 0f b7 11          	movzwl (%r9),%r10d
    34e7:	66 44 89 17          	mov    %r10w,(%rdi)
    34eb:	45 0f b6 49 02       	movzbl 0x2(%r9),%r9d
    34f0:	44 88 4f 02          	mov    %r9b,0x2(%rdi)
    34f4:	45 39 c6             	cmp    %r8d,%r14d
    34f7:	0f 8e de 00 00 00    	jle    35db <main+0x12db>
    34fd:	42 8d 3c 02          	lea    (%rdx,%r8,1),%edi
    3501:	45 01 e0             	add    %r12d,%r8d
    3504:	48 63 ff             	movslq %edi,%rdi
    3507:	4d 63 c0             	movslq %r8d,%r8
    350a:	48 8d 3c 7f          	lea    (%rdi,%rdi,2),%rdi
    350e:	4f 8d 04 40          	lea    (%r8,%r8,2),%r8
    3512:	4c 8d 0c 3b          	lea    (%rbx,%rdi,1),%r9
    3516:	48 01 ef             	add    %rbp,%rdi
    3519:	45 0f b7 11          	movzwl (%r9),%r10d
    351d:	66 44 89 17          	mov    %r10w,(%rdi)
    3521:	45 0f b6 49 02       	movzbl 0x2(%r9),%r9d
    3526:	44 88 4f 02          	mov    %r9b,0x2(%rdi)
    352a:	4e 8d 0c 03          	lea    (%rbx,%r8,1),%r9
    352e:	49 01 e8             	add    %rbp,%r8
    3531:	8d 7e 05             	lea    0x5(%rsi),%edi
    3534:	45 0f b7 11          	movzwl (%r9),%r10d
    3538:	66 45 89 10          	mov    %r10w,(%r8)
    353c:	45 0f b6 49 02       	movzbl 0x2(%r9),%r9d
    3541:	45 88 48 02          	mov    %r9b,0x2(%r8)
    3545:	41 39 fe             	cmp    %edi,%r14d
    3548:	0f 8e 8d 00 00 00    	jle    35db <main+0x12db>
    354e:	44 8d 04 3a          	lea    (%rdx,%rdi,1),%r8d
    3552:	44 01 e7             	add    %r12d,%edi
    3555:	83 c6 06             	add    $0x6,%esi
    3558:	4d 63 c0             	movslq %r8d,%r8
    355b:	48 63 ff             	movslq %edi,%rdi
    355e:	4f 8d 04 40          	lea    (%r8,%r8,2),%r8
    3562:	48 8d 3c 7f          	lea    (%rdi,%rdi,2),%rdi
    3566:	4e 8d 0c 03          	lea    (%rbx,%r8,1),%r9
    356a:	49 01 e8             	add    %rbp,%r8
    356d:	45 0f b7 11          	movzwl (%r9),%r10d
    3571:	66 45 89 10          	mov    %r10w,(%r8)
    3575:	45 0f b6 49 02       	movzbl 0x2(%r9),%r9d
    357a:	45 88 48 02          	mov    %r9b,0x2(%r8)
    357e:	4c 8d 04 3b          	lea    (%rbx,%rdi,1),%r8
    3582:	48 01 ef             	add    %rbp,%rdi
    3585:	45 0f b7 08          	movzwl (%r8),%r9d
    3589:	66 44 89 0f          	mov    %r9w,(%rdi)
    358d:	45 0f b6 40 02       	movzbl 0x2(%r8),%r8d
    3592:	44 88 47 02          	mov    %r8b,0x2(%rdi)
    3596:	41 39 f6             	cmp    %esi,%r14d
    3599:	7e 40                	jle    35db <main+0x12db>
    359b:	01 f2                	add    %esi,%edx
    359d:	48 63 d2             	movslq %edx,%rdx
    35a0:	48 8d 14 52          	lea    (%rdx,%rdx,2),%rdx
    35a4:	48 8d 3c 13          	lea    (%rbx,%rdx,1),%rdi
    35a8:	48 01 ea             	add    %rbp,%rdx
    35ab:	44 0f b7 07          	movzwl (%rdi),%r8d
    35af:	66 44 89 02          	mov    %r8w,(%rdx)
    35b3:	0f b6 7f 02          	movzbl 0x2(%rdi),%edi
    35b7:	40 88 7a 02          	mov    %dil,0x2(%rdx)
    35bb:	41 8d 14 34          	lea    (%r12,%rsi,1),%edx
    35bf:	48 63 d2             	movslq %edx,%rdx
    35c2:	48 8d 14 52          	lea    (%rdx,%rdx,2),%rdx
    35c6:	48 8d 34 13          	lea    (%rbx,%rdx,1),%rsi
    35ca:	48 01 ea             	add    %rbp,%rdx
    35cd:	0f b7 3e             	movzwl (%rsi),%edi
    35d0:	66 89 3a             	mov    %di,(%rdx)
    35d3:	0f b6 76 02          	movzbl 0x2(%rsi),%esi
    35d7:	40 88 72 02          	mov    %sil,0x2(%rdx)
    35db:	48 8b 7c 24 50       	mov    0x50(%rsp),%rdi
    35e0:	44 8b 5c 24 08       	mov    0x8(%rsp),%r11d
    35e5:	8b 54 24 18          	mov    0x18(%rsp),%edx
    35e9:	48 8b 74 24 40       	mov    0x40(%rsp),%rsi
    35ee:	83 44 24 18 02       	addl   $0x2,0x18(%rsp)
    35f3:	48 01 f9             	add    %rdi,%rcx
    35f6:	8b 44 24 18          	mov    0x18(%rsp),%eax
    35fa:	45 01 dc             	add    %r11d,%r12d
    35fd:	44 01 5c 24 30       	add    %r11d,0x30(%rsp)
    3602:	48 01 7c 24 38       	add    %rdi,0x38(%rsp)
    3607:	48 01 74 24 28       	add    %rsi,0x28(%rsp)
    360c:	39 44 24 20          	cmp    %eax,0x20(%rsp)
    3610:	0f 8f 07 fc ff ff    	jg     321d <main+0xf1d>
    3616:	48 8b 44 24 68       	mov    0x68(%rsp),%rax
    361b:	8d 7a 01             	lea    0x1(%rdx),%edi
    361e:	44 8d 5a 02          	lea    0x2(%rdx),%r11d
    3622:	41 0f af fe          	imul   %r14d,%edi
    3626:	48 8d 0c 40          	lea    (%rax,%rax,2),%rcx
    362a:	45 89 f1             	mov    %r14d,%r9d
    362d:	48 89 4c 24 20       	mov    %rcx,0x20(%rsp)
    3632:	41 83 e1 f0          	and    $0xfffffff0,%r9d
    3636:	48 63 d7             	movslq %edi,%rdx
    3639:	48 8d 0c 02          	lea    (%rdx,%rax,1),%rcx
    363d:	48 89 4c 24 18       	mov    %rcx,0x18(%rsp)
    3642:	4c 8d 04 49          	lea    (%rcx,%rcx,2),%r8
    3646:	48 8d 0c 52          	lea    (%rdx,%rdx,2),%rcx
    364a:	4c 8d 24 0b          	lea    (%rbx,%rcx,1),%r12
    364e:	44 89 f1             	mov    %r14d,%ecx
    3651:	c1 e9 04             	shr    $0x4,%ecx
    3654:	48 6b c9 30          	imul   $0x30,%rcx,%rcx
    3658:	48 89 4c 24 28       	mov    %rcx,0x28(%rsp)
    365d:	44 89 f1             	mov    %r14d,%ecx
    3660:	83 e1 0f             	and    $0xf,%ecx
    3663:	89 4c 24 30          	mov    %ecx,0x30(%rsp)
    3667:	83 e9 01             	sub    $0x1,%ecx
    366a:	89 4c 24 38          	mov    %ecx,0x38(%rsp)
    366e:	48 8d 0c 12          	lea    (%rdx,%rdx,1),%rcx
    3672:	41 83 fd 06          	cmp    $0x6,%r13d
    3676:	76 1a                	jbe    3692 <main+0x1392>
    3678:	48 8d 0c 12          	lea    (%rdx,%rdx,1),%rcx
    367c:	4d 89 e2             	mov    %r12,%r10
    367f:	48 8d 34 11          	lea    (%rcx,%rdx,1),%rsi
    3683:	49 f7 d2             	not    %r10
    3686:	48 01 ee             	add    %rbp,%rsi
    3689:	49 01 f2             	add    %rsi,%r10
    368c:	49 83 fa 2e          	cmp    $0x2e,%r10
    3690:	77 4d                	ja     36df <main+0x13df>
    3692:	48 01 d1             	add    %rdx,%rcx
    3695:	0f b7 14 0b          	movzwl (%rbx,%rcx,1),%edx
    3699:	66 89 54 0d 00       	mov    %dx,0x0(%rbp,%rcx,1)
    369e:	0f b6 54 0b 02       	movzbl 0x2(%rbx,%rcx,1),%edx
    36a3:	88 54 0d 02          	mov    %dl,0x2(%rbp,%rcx,1)
    36a7:	48 83 c1 03          	add    $0x3,%rcx
    36ab:	49 39 c8             	cmp    %rcx,%r8
    36ae:	75 e5                	jne    3695 <main+0x1395>
    36b0:	48 8b 4c 24 20       	mov    0x20(%rsp),%rcx
    36b5:	44 01 f7             	add    %r14d,%edi
    36b8:	49 01 c8             	add    %rcx,%r8
    36bb:	49 01 cc             	add    %rcx,%r12
    36be:	48 8b 4c 24 18       	mov    0x18(%rsp),%rcx
    36c3:	48 89 ca             	mov    %rcx,%rdx
    36c6:	44 39 5c 24 14       	cmp    %r11d,0x14(%rsp)
    36cb:	0f 8e c9 01 00 00    	jle    389a <main+0x159a>
    36d1:	48 01 c1             	add    %rax,%rcx
    36d4:	41 83 c3 01          	add    $0x1,%r11d
    36d8:	48 89 4c 24 18       	mov    %rcx,0x18(%rsp)
    36dd:	eb 8f                	jmp    366e <main+0x136e>
    36df:	41 83 fd 0e          	cmp    $0xe,%r13d
    36e3:	0f 86 d0 06 00 00    	jbe    3db9 <main+0x1ab9>
    36e9:	48 8b 4c 24 28       	mov    0x28(%rsp),%rcx
    36ee:	4d 8d 14 0c          	lea    (%r12,%rcx,1),%r10
    36f2:	4c 89 e1             	mov    %r12,%rcx
    36f5:	f3 0f 6f 49 10       	movdqu 0x10(%rcx),%xmm1
    36fa:	f3 0f 6f 39          	movdqu (%rcx),%xmm7
    36fe:	48 83 c1 30          	add    $0x30,%rcx
    3702:	48 83 c6 30          	add    $0x30,%rsi
    3706:	f3 0f 6f 41 f0       	movdqu -0x10(%rcx),%xmm0
    370b:	0f 11 7e d0          	movups %xmm7,-0x30(%rsi)
    370f:	0f 11 4e e0          	movups %xmm1,-0x20(%rsi)
    3713:	0f 11 46 f0          	movups %xmm0,-0x10(%rsi)
    3717:	49 39 ca             	cmp    %rcx,%r10
    371a:	75 d9                	jne    36f5 <main+0x13f5>
    371c:	45 39 ce             	cmp    %r9d,%r14d
    371f:	74 8f                	je     36b0 <main+0x13b0>
    3721:	83 7c 24 38 06       	cmpl   $0x6,0x38(%rsp)
    3726:	8b 74 24 30          	mov    0x30(%rsp),%esi
    372a:	0f 86 96 06 00 00    	jbe    3dc6 <main+0x1ac6>
    3730:	44 89 c9             	mov    %r9d,%ecx
    3733:	45 89 ca             	mov    %r9d,%r10d
    3736:	48 01 d1             	add    %rdx,%rcx
    3739:	48 8d 14 49          	lea    (%rcx,%rcx,2),%rdx
    373d:	48 8d 0c 13          	lea    (%rbx,%rdx,1),%rcx
    3741:	48 01 ea             	add    %rbp,%rdx
    3744:	f3 0f 7e 09          	movq   (%rcx),%xmm1
    3748:	f3 0f 7e 41 08       	movq   0x8(%rcx),%xmm0
    374d:	48 8b 49 10          	mov    0x10(%rcx),%rcx
    3751:	66 0f d6 0a          	movq   %xmm1,(%rdx)
    3755:	48 89 4a 10          	mov    %rcx,0x10(%rdx)
    3759:	66 0f d6 42 08       	movq   %xmm0,0x8(%rdx)
    375e:	89 f2                	mov    %esi,%edx
    3760:	83 e2 f8             	and    $0xfffffff8,%edx
    3763:	44 01 d2             	add    %r10d,%edx
    3766:	83 e6 07             	and    $0x7,%esi
    3769:	0f 84 41 ff ff ff    	je     36b0 <main+0x13b0>
    376f:	8d 0c 17             	lea    (%rdi,%rdx,1),%ecx
    3772:	48 63 c9             	movslq %ecx,%rcx
    3775:	48 8d 0c 49          	lea    (%rcx,%rcx,2),%rcx
    3779:	48 8d 34 0b          	lea    (%rbx,%rcx,1),%rsi
    377d:	48 01 e9             	add    %rbp,%rcx
    3780:	44 0f b7 16          	movzwl (%rsi),%r10d
    3784:	66 44 89 11          	mov    %r10w,(%rcx)
    3788:	0f b6 76 02          	movzbl 0x2(%rsi),%esi
    378c:	40 88 71 02          	mov    %sil,0x2(%rcx)
    3790:	8d 4a 01             	lea    0x1(%rdx),%ecx
    3793:	41 39 ce             	cmp    %ecx,%r14d
    3796:	0f 8e 14 ff ff ff    	jle    36b0 <main+0x13b0>
    379c:	01 f9                	add    %edi,%ecx
    379e:	48 63 c9             	movslq %ecx,%rcx
    37a1:	48 8d 0c 49          	lea    (%rcx,%rcx,2),%rcx
    37a5:	48 8d 34 0b          	lea    (%rbx,%rcx,1),%rsi
    37a9:	48 01 e9             	add    %rbp,%rcx
    37ac:	44 0f b7 16          	movzwl (%rsi),%r10d
    37b0:	66 44 89 11          	mov    %r10w,(%rcx)
    37b4:	0f b6 76 02          	movzbl 0x2(%rsi),%esi
    37b8:	40 88 71 02          	mov    %sil,0x2(%rcx)
    37bc:	8d 4a 02             	lea    0x2(%rdx),%ecx
    37bf:	41 39 ce             	cmp    %ecx,%r14d
    37c2:	0f 8e e8 fe ff ff    	jle    36b0 <main+0x13b0>
    37c8:	01 f9                	add    %edi,%ecx
    37ca:	48 63 c9             	movslq %ecx,%rcx
    37cd:	48 8d 0c 49          	lea    (%rcx,%rcx,2),%rcx
    37d1:	48 8d 34 0b          	lea    (%rbx,%rcx,1),%rsi
    37d5:	48 01 e9             	add    %rbp,%rcx
    37d8:	44 0f b7 16          	movzwl (%rsi),%r10d
    37dc:	66 44 89 11          	mov    %r10w,(%rcx)
    37e0:	0f b6 76 02          	movzbl 0x2(%rsi),%esi
    37e4:	40 88 71 02          	mov    %sil,0x2(%rcx)
    37e8:	8d 4a 03             	lea    0x3(%rdx),%ecx
    37eb:	41 39 ce             	cmp    %ecx,%r14d
    37ee:	0f 8e bc fe ff ff    	jle    36b0 <main+0x13b0>
    37f4:	01 f9                	add    %edi,%ecx
    37f6:	48 63 c9             	movslq %ecx,%rcx
    37f9:	48 8d 0c 49          	lea    (%rcx,%rcx,2),%rcx
    37fd:	48 8d 34 0b          	lea    (%rbx,%rcx,1),%rsi
    3801:	48 01 e9             	add    %rbp,%rcx
    3804:	44 0f b7 16          	movzwl (%rsi),%r10d
    3808:	66 44 89 11          	mov    %r10w,(%rcx)
    380c:	0f b6 76 02          	movzbl 0x2(%rsi),%esi
    3810:	40 88 71 02          	mov    %sil,0x2(%rcx)
    3814:	8d 4a 04             	lea    0x4(%rdx),%ecx
    3817:	41 39 ce             	cmp    %ecx,%r14d
    381a:	0f 8e 90 fe ff ff    	jle    36b0 <main+0x13b0>
    3820:	01 f9                	add    %edi,%ecx
    3822:	48 63 c9             	movslq %ecx,%rcx
    3825:	48 8d 0c 49          	lea    (%rcx,%rcx,2),%rcx
    3829:	48 8d 34 0b          	lea    (%rbx,%rcx,1),%rsi
    382d:	48 01 e9             	add    %rbp,%rcx
    3830:	44 0f b7 16          	movzwl (%rsi),%r10d
    3834:	66 44 89 11          	mov    %r10w,(%rcx)
    3838:	0f b6 76 02          	movzbl 0x2(%rsi),%esi
    383c:	40 88 71 02          	mov    %sil,0x2(%rcx)
    3840:	8d 4a 05             	lea    0x5(%rdx),%ecx
    3843:	41 39 ce             	cmp    %ecx,%r14d
    3846:	0f 8e 64 fe ff ff    	jle    36b0 <main+0x13b0>
    384c:	01 f9                	add    %edi,%ecx
    384e:	83 c2 06             	add    $0x6,%edx
    3851:	48 63 c9             	movslq %ecx,%rcx
    3854:	48 8d 0c 49          	lea    (%rcx,%rcx,2),%rcx
    3858:	48 8d 34 0b          	lea    (%rbx,%rcx,1),%rsi
    385c:	48 01 e9             	add    %rbp,%rcx
    385f:	44 0f b7 16          	movzwl (%rsi),%r10d
    3863:	66 44 89 11          	mov    %r10w,(%rcx)
    3867:	0f b6 76 02          	movzbl 0x2(%rsi),%esi
    386b:	40 88 71 02          	mov    %sil,0x2(%rcx)
    386f:	41 39 d6             	cmp    %edx,%r14d
    3872:	0f 8e 38 fe ff ff    	jle    36b0 <main+0x13b0>
    3878:	01 fa                	add    %edi,%edx
    387a:	48 63 d2             	movslq %edx,%rdx
    387d:	48 8d 14 52          	lea    (%rdx,%rdx,2),%rdx
    3881:	48 8d 0c 13          	lea    (%rbx,%rdx,1),%rcx
    3885:	48 01 ea             	add    %rbp,%rdx
    3888:	0f b7 31             	movzwl (%rcx),%esi
    388b:	66 89 32             	mov    %si,(%rdx)
    388e:	0f b6 49 02          	movzbl 0x2(%rcx),%ecx
    3892:	88 4a 02             	mov    %cl,0x2(%rdx)
    3895:	e9 16 fe ff ff       	jmp    36b0 <main+0x13b0>
    389a:	8b 44 24 14          	mov    0x14(%rsp),%eax
    389e:	85 c0                	test   %eax,%eax
    38a0:	0f 8e 45 f8 ff ff    	jle    30eb <main+0xdeb>
    38a6:	44 89 f0             	mov    %r14d,%eax
    38a9:	44 29 f8             	sub    %r15d,%eax
    38ac:	89 44 24 20          	mov    %eax,0x20(%rsp)
    38b0:	41 39 c6             	cmp    %eax,%r14d
    38b3:	0f 8e 32 f8 ff ff    	jle    30eb <main+0xdeb>
    38b9:	8b 7c 24 14          	mov    0x14(%rsp),%edi
    38bd:	8d 4f ff             	lea    -0x1(%rdi),%ecx
    38c0:	89 4c 24 68          	mov    %ecx,0x68(%rsp)
    38c4:	83 ff 02             	cmp    $0x2,%edi
    38c7:	0f 8e c5 0c 00 00    	jle    4592 <main+0x2292>
    38cd:	48 63 7c 24 08       	movslq 0x8(%rsp),%rdi
    38d2:	48 98                	cltq   
    38d4:	4d 63 cf             	movslq %r15d,%r9
    38d7:	41 8d 4f ff          	lea    -0x1(%r15),%ecx
    38db:	48 89 44 24 40       	mov    %rax,0x40(%rsp)
    38e0:	44 89 f6             	mov    %r14d,%esi
    38e3:	49 89 fb             	mov    %rdi,%r11
    38e6:	48 89 7c 24 58       	mov    %rdi,0x58(%rsp)
    38eb:	48 8d 3c 7f          	lea    (%rdi,%rdi,2),%rdi
    38ef:	48 89 7c 24 70       	mov    %rdi,0x70(%rsp)
    38f4:	44 89 ff             	mov    %r15d,%edi
    38f7:	48 01 f8             	add    %rdi,%rax
    38fa:	48 89 7c 24 38       	mov    %rdi,0x38(%rsp)
    38ff:	48 8d 04 40          	lea    (%rax,%rax,2),%rax
    3903:	c7 44 24 28 01 00 00 	movl   $0x1,0x28(%rsp)
    390a:	00 
    390b:	48 89 44 24 30       	mov    %rax,0x30(%rsp)
    3910:	49 63 c6             	movslq %r14d,%rax
    3913:	48 89 c7             	mov    %rax,%rdi
    3916:	89 4c 24 18          	mov    %ecx,0x18(%rsp)
    391a:	44 89 f1             	mov    %r14d,%ecx
    391d:	4c 29 cf             	sub    %r9,%rdi
    3920:	48 89 84 24 80 00 00 	mov    %rax,0x80(%rsp)
    3927:	00 
    3928:	48 8d 14 7f          	lea    (%rdi,%rdi,2),%rdx
    392c:	48 89 7c 24 60       	mov    %rdi,0x60(%rsp)
    3931:	4c 8d 54 15 00       	lea    0x0(%rbp,%rdx,1),%r10
    3936:	48 8d 50 01          	lea    0x1(%rax),%rdx
    393a:	48 89 7c 24 50       	mov    %rdi,0x50(%rsp)
    393f:	4c 29 ca             	sub    %r9,%rdx
    3942:	43 8d 3c 33          	lea    (%r11,%r14,1),%edi
    3946:	4c 89 8c 24 88 00 00 	mov    %r9,0x88(%rsp)
    394d:	00 
    394e:	4c 89 d0             	mov    %r10,%rax
    3951:	48 8d 14 52          	lea    (%rdx,%rdx,2),%rdx
    3955:	89 7c 24 78          	mov    %edi,0x78(%rsp)
    3959:	48 01 da             	add    %rbx,%rdx
    395c:	49 89 d1             	mov    %rdx,%r9
    395f:	44 29 f1             	sub    %r14d,%ecx
    3962:	83 7c 24 18 06       	cmpl   $0x6,0x18(%rsp)
    3967:	48 63 fe             	movslq %esi,%rdi
    396a:	0f 86 ef 03 00 00    	jbe    3d5f <main+0x1a5f>
    3970:	48 8b 54 24 60       	mov    0x60(%rsp),%rdx
    3975:	48 01 fa             	add    %rdi,%rdx
    3978:	4c 8d 14 52          	lea    (%rdx,%rdx,2),%r10
    397c:	4e 8d 64 13 30       	lea    0x30(%rbx,%r10,1),%r12
    3981:	4e 8d 1c 13          	lea    (%rbx,%r10,1),%r11
    3985:	4c 39 e0             	cmp    %r12,%rax
    3988:	4c 8d 60 30          	lea    0x30(%rax),%r12
    398c:	4e 8d 44 15 00       	lea    0x0(%rbp,%r10,1),%r8
    3991:	41 0f 93 c5          	setae  %r13b
    3995:	4d 39 e3             	cmp    %r12,%r11
    3998:	41 0f 93 c4          	setae  %r12b
    399c:	45 09 e5             	or     %r12d,%r13d
    399f:	49 89 c4             	mov    %rax,%r12
    39a2:	4d 29 cc             	sub    %r9,%r12
    39a5:	49 83 c4 02          	add    $0x2,%r12
    39a9:	49 83 fc 2e          	cmp    $0x2e,%r12
    39ad:	41 0f 97 c4          	seta   %r12b
    39b1:	45 21 e5             	and    %r12d,%r13d
    39b4:	4d 89 c4             	mov    %r8,%r12
    39b7:	4d 29 cc             	sub    %r9,%r12
    39ba:	49 83 c4 02          	add    $0x2,%r12
    39be:	49 83 fc 2e          	cmp    $0x2e,%r12
    39c2:	41 0f 97 c4          	seta   %r12b
    39c6:	45 21 e5             	and    %r12d,%r13d
    39c9:	49 89 dc             	mov    %rbx,%r12
    39cc:	4d 29 cc             	sub    %r9,%r12
    39cf:	4f 8d 64 14 02       	lea    0x2(%r12,%r10,1),%r12
    39d4:	49 83 fc 2e          	cmp    $0x2e,%r12
    39d8:	41 0f 97 c4          	seta   %r12b
    39dc:	45 84 e5             	test   %r12b,%r13b
    39df:	0f 84 7a 03 00 00    	je     3d5f <main+0x1a5f>
    39e5:	4e 8d 64 13 03       	lea    0x3(%rbx,%r10,1),%r12
    39ea:	4d 89 c2             	mov    %r8,%r10
    39ed:	4d 29 e2             	sub    %r12,%r10
    39f0:	49 83 c2 02          	add    $0x2,%r10
    39f4:	49 83 fa 2e          	cmp    $0x2e,%r10
    39f8:	0f 86 61 03 00 00    	jbe    3d5f <main+0x1a5f>
    39fe:	83 7c 24 18 0e       	cmpl   $0xe,0x18(%rsp)
    3a03:	0f 86 ba 11 00 00    	jbe    4bc3 <main+0x28c3>
    3a09:	45 89 fa             	mov    %r15d,%r10d
    3a0c:	4d 8d 61 fd          	lea    -0x3(%r9),%r12
    3a10:	31 ff                	xor    %edi,%edi
    3a12:	41 c1 ea 04          	shr    $0x4,%r10d
    3a16:	4d 6b d2 30          	imul   $0x30,%r10,%r10
    3a1a:	f3 41 0f 6f 4c 3c 10 	movdqu 0x10(%r12,%rdi,1),%xmm1
    3a21:	f3 41 0f 6f 44 3c 20 	movdqu 0x20(%r12,%rdi,1),%xmm0
    3a28:	f3 41 0f 6f 34 3c    	movdqu (%r12,%rdi,1),%xmm6
    3a2e:	0f 11 4c 38 10       	movups %xmm1,0x10(%rax,%rdi,1)
    3a33:	0f 11 34 38          	movups %xmm6,(%rax,%rdi,1)
    3a37:	0f 11 44 38 20       	movups %xmm0,0x20(%rax,%rdi,1)
    3a3c:	f3 41 0f 6f 4c 3b 10 	movdqu 0x10(%r11,%rdi,1),%xmm1
    3a43:	f3 41 0f 6f 44 3b 20 	movdqu 0x20(%r11,%rdi,1),%xmm0
    3a4a:	f3 41 0f 6f 3c 3b    	movdqu (%r11,%rdi,1),%xmm7
    3a50:	41 0f 11 4c 38 10    	movups %xmm1,0x10(%r8,%rdi,1)
    3a56:	41 0f 11 3c 38       	movups %xmm7,(%r8,%rdi,1)
    3a5b:	41 0f 11 44 38 20    	movups %xmm0,0x20(%r8,%rdi,1)
    3a61:	48 83 c7 30          	add    $0x30,%rdi
    3a65:	49 39 fa             	cmp    %rdi,%r10
    3a68:	75 b0                	jne    3a1a <main+0x171a>
    3a6a:	8b 7c 24 20          	mov    0x20(%rsp),%edi
    3a6e:	45 89 fc             	mov    %r15d,%r12d
    3a71:	41 83 e4 f0          	and    $0xfffffff0,%r12d
    3a75:	44 01 e7             	add    %r12d,%edi
    3a78:	45 39 fc             	cmp    %r15d,%r12d
    3a7b:	0f 84 9a 02 00 00    	je     3d1b <main+0x1a1b>
    3a81:	45 89 fa             	mov    %r15d,%r10d
    3a84:	45 29 e2             	sub    %r12d,%r10d
    3a87:	45 8d 42 ff          	lea    -0x1(%r10),%r8d
    3a8b:	41 83 f8 06          	cmp    $0x6,%r8d
    3a8f:	76 66                	jbe    3af7 <main+0x17f7>
    3a91:	4e 8d 04 22          	lea    (%rdx,%r12,1),%r8
    3a95:	48 8b 54 24 50       	mov    0x50(%rsp),%rdx
    3a9a:	4f 8d 04 40          	lea    (%r8,%r8,2),%r8
    3a9e:	4c 01 e2             	add    %r12,%rdx
    3aa1:	4e 8d 1c 03          	lea    (%rbx,%r8,1),%r11
    3aa5:	49 01 e8             	add    %rbp,%r8
    3aa8:	48 8d 14 52          	lea    (%rdx,%rdx,2),%rdx
    3aac:	4c 8d 24 13          	lea    (%rbx,%rdx,1),%r12
    3ab0:	48 01 ea             	add    %rbp,%rdx
    3ab3:	4d 8b 6c 24 08       	mov    0x8(%r12),%r13
    3ab8:	f3 41 0f 7e 04 24    	movq   (%r12),%xmm0
    3abe:	4d 8b 64 24 10       	mov    0x10(%r12),%r12
    3ac3:	4c 89 6a 08          	mov    %r13,0x8(%rdx)
    3ac7:	4c 89 62 10          	mov    %r12,0x10(%rdx)
    3acb:	66 0f d6 02          	movq   %xmm0,(%rdx)
    3acf:	49 8b 53 10          	mov    0x10(%r11),%rdx
    3ad3:	4d 8b 2b             	mov    (%r11),%r13
    3ad6:	4d 8b 63 08          	mov    0x8(%r11),%r12
    3ada:	49 89 50 10          	mov    %rdx,0x10(%r8)
    3ade:	44 89 d2             	mov    %r10d,%edx
    3ae1:	83 e2 f8             	and    $0xfffffff8,%edx
    3ae4:	4d 89 28             	mov    %r13,(%r8)
    3ae7:	01 d7                	add    %edx,%edi
    3ae9:	41 80 e2 07          	and    $0x7,%r10b
    3aed:	4d 89 60 08          	mov    %r12,0x8(%r8)
    3af1:	0f 84 24 02 00 00    	je     3d1b <main+0x1a1b>
    3af7:	8d 14 39             	lea    (%rcx,%rdi,1),%edx
    3afa:	48 63 d2             	movslq %edx,%rdx
    3afd:	48 8d 14 52          	lea    (%rdx,%rdx,2),%rdx
    3b01:	4c 8d 04 13          	lea    (%rbx,%rdx,1),%r8
    3b05:	48 01 ea             	add    %rbp,%rdx
    3b08:	45 0f b7 10          	movzwl (%r8),%r10d
    3b0c:	66 44 89 12          	mov    %r10w,(%rdx)
    3b10:	45 0f b6 40 02       	movzbl 0x2(%r8),%r8d
    3b15:	44 88 42 02          	mov    %r8b,0x2(%rdx)
    3b19:	44 8d 04 3e          	lea    (%rsi,%rdi,1),%r8d
    3b1d:	8d 57 01             	lea    0x1(%rdi),%edx
    3b20:	4d 63 c0             	movslq %r8d,%r8
    3b23:	4f 8d 04 40          	lea    (%r8,%r8,2),%r8
    3b27:	4e 8d 14 03          	lea    (%rbx,%r8,1),%r10
    3b2b:	49 01 e8             	add    %rbp,%r8
    3b2e:	45 0f b7 1a          	movzwl (%r10),%r11d
    3b32:	66 45 89 18          	mov    %r11w,(%r8)
    3b36:	45 0f b6 52 02       	movzbl 0x2(%r10),%r10d
    3b3b:	45 88 50 02          	mov    %r10b,0x2(%r8)
    3b3f:	41 39 d6             	cmp    %edx,%r14d
    3b42:	0f 8e d3 01 00 00    	jle    3d1b <main+0x1a1b>
    3b48:	44 8d 04 11          	lea    (%rcx,%rdx,1),%r8d
    3b4c:	01 f2                	add    %esi,%edx
    3b4e:	4d 63 c0             	movslq %r8d,%r8
    3b51:	48 63 d2             	movslq %edx,%rdx
    3b54:	4f 8d 04 40          	lea    (%r8,%r8,2),%r8
    3b58:	48 8d 14 52          	lea    (%rdx,%rdx,2),%rdx
    3b5c:	4e 8d 14 03          	lea    (%rbx,%r8,1),%r10
    3b60:	49 01 e8             	add    %rbp,%r8
    3b63:	45 0f b7 1a          	movzwl (%r10),%r11d
    3b67:	66 45 89 18          	mov    %r11w,(%r8)
    3b6b:	45 0f b6 52 02       	movzbl 0x2(%r10),%r10d
    3b70:	45 88 50 02          	mov    %r10b,0x2(%r8)
    3b74:	4c 8d 14 13          	lea    (%rbx,%rdx,1),%r10
    3b78:	48 01 ea             	add    %rbp,%rdx
    3b7b:	44 8d 47 02          	lea    0x2(%rdi),%r8d
    3b7f:	45 0f b7 1a          	movzwl (%r10),%r11d
    3b83:	66 44 89 1a          	mov    %r11w,(%rdx)
    3b87:	45 0f b6 52 02       	movzbl 0x2(%r10),%r10d
    3b8c:	44 88 52 02          	mov    %r10b,0x2(%rdx)
    3b90:	45 39 c6             	cmp    %r8d,%r14d
    3b93:	0f 8e 82 01 00 00    	jle    3d1b <main+0x1a1b>
    3b99:	42 8d 14 01          	lea    (%rcx,%r8,1),%edx
    3b9d:	41 01 f0             	add    %esi,%r8d
    3ba0:	48 63 d2             	movslq %edx,%rdx
    3ba3:	4d 63 c0             	movslq %r8d,%r8
    3ba6:	48 8d 14 52          	lea    (%rdx,%rdx,2),%rdx
    3baa:	4f 8d 04 40          	lea    (%r8,%r8,2),%r8
    3bae:	4c 8d 14 13          	lea    (%rbx,%rdx,1),%r10
    3bb2:	48 01 ea             	add    %rbp,%rdx
    3bb5:	45 0f b7 1a          	movzwl (%r10),%r11d
    3bb9:	66 44 89 1a          	mov    %r11w,(%rdx)
    3bbd:	45 0f b6 52 02       	movzbl 0x2(%r10),%r10d
    3bc2:	44 88 52 02          	mov    %r10b,0x2(%rdx)
    3bc6:	4e 8d 14 03          	lea    (%rbx,%r8,1),%r10
    3bca:	49 01 e8             	add    %rbp,%r8
    3bcd:	8d 57 03             	lea    0x3(%rdi),%edx
    3bd0:	45 0f b7 1a          	movzwl (%r10),%r11d
    3bd4:	66 45 89 18          	mov    %r11w,(%r8)
    3bd8:	45 0f b6 52 02       	movzbl 0x2(%r10),%r10d
    3bdd:	45 88 50 02          	mov    %r10b,0x2(%r8)
    3be1:	41 39 d6             	cmp    %edx,%r14d
    3be4:	0f 8e 31 01 00 00    	jle    3d1b <main+0x1a1b>
    3bea:	44 8d 04 11          	lea    (%rcx,%rdx,1),%r8d
    3bee:	01 f2                	add    %esi,%edx
    3bf0:	4d 63 c0             	movslq %r8d,%r8
    3bf3:	48 63 d2             	movslq %edx,%rdx
    3bf6:	4f 8d 04 40          	lea    (%r8,%r8,2),%r8
    3bfa:	48 8d 14 52          	lea    (%rdx,%rdx,2),%rdx
    3bfe:	4e 8d 14 03          	lea    (%rbx,%r8,1),%r10
    3c02:	49 01 e8             	add    %rbp,%r8
    3c05:	45 0f b7 1a          	movzwl (%r10),%r11d
    3c09:	66 45 89 18          	mov    %r11w,(%r8)
    3c0d:	45 0f b6 52 02       	movzbl 0x2(%r10),%r10d
    3c12:	45 88 50 02          	mov    %r10b,0x2(%r8)
    3c16:	4c 8d 14 13          	lea    (%rbx,%rdx,1),%r10
    3c1a:	48 01 ea             	add    %rbp,%rdx
    3c1d:	44 8d 47 04          	lea    0x4(%rdi),%r8d
    3c21:	45 0f b7 1a          	movzwl (%r10),%r11d
    3c25:	66 44 89 1a          	mov    %r11w,(%rdx)
    3c29:	45 0f b6 52 02       	movzbl 0x2(%r10),%r10d
    3c2e:	44 88 52 02          	mov    %r10b,0x2(%rdx)
    3c32:	45 39 c6             	cmp    %r8d,%r14d
    3c35:	0f 8e e0 00 00 00    	jle    3d1b <main+0x1a1b>
    3c3b:	42 8d 14 01          	lea    (%rcx,%r8,1),%edx
    3c3f:	41 01 f0             	add    %esi,%r8d
    3c42:	48 63 d2             	movslq %edx,%rdx
    3c45:	4d 63 c0             	movslq %r8d,%r8
    3c48:	48 8d 14 52          	lea    (%rdx,%rdx,2),%rdx
    3c4c:	4f 8d 04 40          	lea    (%r8,%r8,2),%r8
    3c50:	4c 8d 14 13          	lea    (%rbx,%rdx,1),%r10
    3c54:	48 01 ea             	add    %rbp,%rdx
    3c57:	45 0f b7 1a          	movzwl (%r10),%r11d
    3c5b:	66 44 89 1a          	mov    %r11w,(%rdx)
    3c5f:	45 0f b6 52 02       	movzbl 0x2(%r10),%r10d
    3c64:	44 88 52 02          	mov    %r10b,0x2(%rdx)
    3c68:	4e 8d 14 03          	lea    (%rbx,%r8,1),%r10
    3c6c:	49 01 e8             	add    %rbp,%r8
    3c6f:	8d 57 05             	lea    0x5(%rdi),%edx
    3c72:	45 0f b7 1a          	movzwl (%r10),%r11d
    3c76:	66 45 89 18          	mov    %r11w,(%r8)
    3c7a:	45 0f b6 52 02       	movzbl 0x2(%r10),%r10d
    3c7f:	45 88 50 02          	mov    %r10b,0x2(%r8)
    3c83:	41 39 d6             	cmp    %edx,%r14d
    3c86:	0f 8e 8f 00 00 00    	jle    3d1b <main+0x1a1b>
    3c8c:	44 8d 04 11          	lea    (%rcx,%rdx,1),%r8d
    3c90:	01 f2                	add    %esi,%edx
    3c92:	83 c7 06             	add    $0x6,%edi
    3c95:	4d 63 c0             	movslq %r8d,%r8
    3c98:	48 63 d2             	movslq %edx,%rdx
    3c9b:	4f 8d 04 40          	lea    (%r8,%r8,2),%r8
    3c9f:	48 8d 14 52          	lea    (%rdx,%rdx,2),%rdx
    3ca3:	4e 8d 14 03          	lea    (%rbx,%r8,1),%r10
    3ca7:	49 01 e8             	add    %rbp,%r8
    3caa:	45 0f b7 1a          	movzwl (%r10),%r11d
    3cae:	66 45 89 18          	mov    %r11w,(%r8)
    3cb2:	45 0f b6 52 02       	movzbl 0x2(%r10),%r10d
    3cb7:	45 88 50 02          	mov    %r10b,0x2(%r8)
    3cbb:	4c 8d 04 13          	lea    (%rbx,%rdx,1),%r8
    3cbf:	48 01 ea             	add    %rbp,%rdx
    3cc2:	45 0f b7 10          	movzwl (%r8),%r10d
    3cc6:	66 44 89 12          	mov    %r10w,(%rdx)
    3cca:	45 0f b6 40 02       	movzbl 0x2(%r8),%r8d
    3ccf:	44 88 42 02          	mov    %r8b,0x2(%rdx)
    3cd3:	41 39 fe             	cmp    %edi,%r14d
    3cd6:	7e 43                	jle    3d1b <main+0x1a1b>
    3cd8:	8d 14 39             	lea    (%rcx,%rdi,1),%edx
    3cdb:	48 63 d2             	movslq %edx,%rdx
    3cde:	48 8d 14 52          	lea    (%rdx,%rdx,2),%rdx
    3ce2:	4c 8d 04 13          	lea    (%rbx,%rdx,1),%r8
    3ce6:	48 01 ea             	add    %rbp,%rdx
    3ce9:	45 0f b7 10          	movzwl (%r8),%r10d
    3ced:	66 44 89 12          	mov    %r10w,(%rdx)
    3cf1:	45 0f b6 40 02       	movzbl 0x2(%r8),%r8d
    3cf6:	44 88 42 02          	mov    %r8b,0x2(%rdx)
    3cfa:	8d 14 3e             	lea    (%rsi,%rdi,1),%edx
    3cfd:	48 63 d2             	movslq %edx,%rdx
    3d00:	48 8d 14 52          	lea    (%rdx,%rdx,2),%rdx
    3d04:	48 8d 3c 13          	lea    (%rbx,%rdx,1),%rdi
    3d08:	48 01 ea             	add    %rbp,%rdx
    3d0b:	44 0f b7 07          	movzwl (%rdi),%r8d
    3d0f:	66 44 89 02          	mov    %r8w,(%rdx)
    3d13:	0f b6 7f 02          	movzbl 0x2(%rdi),%edi
    3d17:	40 88 7a 02          	mov    %dil,0x2(%rdx)
    3d1b:	8b 7c 24 28          	mov    0x28(%rsp),%edi
    3d1f:	44 8b 5c 24 08       	mov    0x8(%rsp),%r11d
    3d24:	8d 57 02             	lea    0x2(%rdi),%edx
    3d27:	8b 7c 24 78          	mov    0x78(%rsp),%edi
    3d2b:	44 01 de             	add    %r11d,%esi
    3d2e:	4c 8b 5c 24 58       	mov    0x58(%rsp),%r11
    3d33:	4c 01 5c 24 50       	add    %r11,0x50(%rsp)
    3d38:	01 f9                	add    %edi,%ecx
    3d3a:	48 8b 7c 24 70       	mov    0x70(%rsp),%rdi
    3d3f:	48 01 7c 24 30       	add    %rdi,0x30(%rsp)
    3d44:	48 01 f8             	add    %rdi,%rax
    3d47:	49 01 f9             	add    %rdi,%r9
    3d4a:	8b 7c 24 68          	mov    0x68(%rsp),%edi
    3d4e:	39 fa                	cmp    %edi,%edx
    3d50:	0f 8d 31 0b 00 00    	jge    4887 <main+0x2587>
    3d56:	89 54 24 28          	mov    %edx,0x28(%rsp)
    3d5a:	e9 00 fc ff ff       	jmp    395f <main+0x165f>
    3d5f:	4c 6b 44 24 38 fd    	imul   $0xfffffffffffffffd,0x38(%rsp),%r8
    3d65:	48 8b 54 24 30       	mov    0x30(%rsp),%rdx
    3d6a:	49 01 d0             	add    %rdx,%r8
    3d6d:	48 8b 54 24 40       	mov    0x40(%rsp),%rdx
    3d72:	48 01 fa             	add    %rdi,%rdx
    3d75:	48 8d 14 52          	lea    (%rdx,%rdx,2),%rdx
    3d79:	42 0f b7 3c 03       	movzwl (%rbx,%r8,1),%edi
    3d7e:	66 42 89 7c 05 00    	mov    %di,0x0(%rbp,%r8,1)
    3d84:	42 0f b6 7c 03 02    	movzbl 0x2(%rbx,%r8,1),%edi
    3d8a:	42 88 7c 05 02       	mov    %dil,0x2(%rbp,%r8,1)
    3d8f:	0f b7 3c 13          	movzwl (%rbx,%rdx,1),%edi
    3d93:	49 83 c0 03          	add    $0x3,%r8
    3d97:	66 89 7c 15 00       	mov    %di,0x0(%rbp,%rdx,1)
    3d9c:	0f b6 7c 13 02       	movzbl 0x2(%rbx,%rdx,1),%edi
    3da1:	40 88 7c 15 02       	mov    %dil,0x2(%rbp,%rdx,1)
    3da6:	48 8b 7c 24 30       	mov    0x30(%rsp),%rdi
    3dab:	48 83 c2 03          	add    $0x3,%rdx
    3daf:	49 39 f8             	cmp    %rdi,%r8
    3db2:	75 c5                	jne    3d79 <main+0x1a79>
    3db4:	e9 62 ff ff ff       	jmp    3d1b <main+0x1a1b>
    3db9:	44 89 f6             	mov    %r14d,%esi
    3dbc:	31 c9                	xor    %ecx,%ecx
    3dbe:	45 31 d2             	xor    %r10d,%r10d
    3dc1:	e9 70 f9 ff ff       	jmp    3736 <main+0x1436>
    3dc6:	44 89 ca             	mov    %r9d,%edx
    3dc9:	e9 a1 f9 ff ff       	jmp    376f <main+0x146f>
    3dce:	48 8d 14 52          	lea    (%rdx,%rdx,2),%rdx
    3dd2:	48 89 ce             	mov    %rcx,%rsi
    3dd5:	0f b7 04 33          	movzwl (%rbx,%rsi,1),%eax
    3dd9:	66 89 44 35 00       	mov    %ax,0x0(%rbp,%rsi,1)
    3dde:	0f b6 44 33 02       	movzbl 0x2(%rbx,%rsi,1),%eax
    3de3:	88 44 35 02          	mov    %al,0x2(%rbp,%rsi,1)
    3de7:	0f b7 04 13          	movzwl (%rbx,%rdx,1),%eax
    3deb:	48 83 c6 03          	add    $0x3,%rsi
    3def:	66 89 44 15 00       	mov    %ax,0x0(%rbp,%rdx,1)
    3df4:	0f b6 44 13 02       	movzbl 0x2(%rbx,%rdx,1),%eax
    3df9:	88 44 15 02          	mov    %al,0x2(%rbp,%rdx,1)
    3dfd:	48 8b 44 24 38       	mov    0x38(%rsp),%rax
    3e02:	48 83 c2 03          	add    $0x3,%rdx
    3e06:	48 39 c6             	cmp    %rax,%rsi
    3e09:	75 ca                	jne    3dd5 <main+0x1ad5>
    3e0b:	e9 cb f7 ff ff       	jmp    35db <main+0x12db>
    3e10:	83 7c 24 14 00       	cmpl   $0x0,0x14(%rsp)
    3e15:	0f 8e c8 f2 ff ff    	jle    30e3 <main+0xde3>
    3e1b:	41 8d 4f ff          	lea    -0x1(%r15),%ecx
    3e1f:	49 63 c6             	movslq %r14d,%rax
    3e22:	89 4c 24 18          	mov    %ecx,0x18(%rsp)
    3e26:	43 8d 0c 36          	lea    (%r14,%r14,1),%ecx
    3e2a:	89 4c 24 08          	mov    %ecx,0x8(%rsp)
    3e2e:	8b 4c 24 14          	mov    0x14(%rsp),%ecx
    3e32:	45 31 d2             	xor    %r10d,%r10d
    3e35:	4d 63 cf             	movslq %r15d,%r9
    3e38:	8d 51 ff             	lea    -0x1(%rcx),%edx
    3e3b:	89 54 24 20          	mov    %edx,0x20(%rsp)
    3e3f:	83 f9 02             	cmp    $0x2,%ecx
    3e42:	0f 8e 96 04 00 00    	jle    42de <main+0x1fde>
    3e48:	48 63 4c 24 08       	movslq 0x8(%rsp),%rcx
    3e4d:	4d 63 cf             	movslq %r15d,%r9
    3e50:	31 d2                	xor    %edx,%edx
    3e52:	89 7c 24 60          	mov    %edi,0x60(%rsp)
    3e56:	4c 89 4c 24 70       	mov    %r9,0x70(%rsp)
    3e5b:	45 89 f4             	mov    %r14d,%r12d
    3e5e:	45 31 c0             	xor    %r8d,%r8d
    3e61:	48 89 ef             	mov    %rbp,%rdi
    3e64:	48 89 4c 24 40       	mov    %rcx,0x40(%rsp)
    3e69:	48 8d 0c 49          	lea    (%rcx,%rcx,2),%rcx
    3e6d:	48 89 4c 24 50       	mov    %rcx,0x50(%rsp)
    3e72:	4b 8d 0c 49          	lea    (%r9,%r9,2),%rcx
    3e76:	48 89 4c 24 30       	mov    %rcx,0x30(%rsp)
    3e7b:	48 8d 4b 03          	lea    0x3(%rbx),%rcx
    3e7f:	48 c7 44 24 38 00 00 	movq   $0x0,0x38(%rsp)
    3e86:	00 00 
    3e88:	c7 44 24 28 01 00 00 	movl   $0x1,0x28(%rsp)
    3e8f:	00 
    3e90:	48 89 4c 24 58       	mov    %rcx,0x58(%rsp)
    3e95:	48 89 44 24 68       	mov    %rax,0x68(%rsp)
    3e9a:	48 89 d0             	mov    %rdx,%rax
    3e9d:	83 7c 24 18 06       	cmpl   $0x6,0x18(%rsp)
    3ea2:	49 63 cc             	movslq %r12d,%rcx
    3ea5:	0f 86 db 03 00 00    	jbe    4286 <main+0x1f86>
    3eab:	48 8d 34 49          	lea    (%rcx,%rcx,2),%rsi
    3eaf:	4c 8b 4c 24 58       	mov    0x58(%rsp),%r9
    3eb4:	4c 8d 5c 33 30       	lea    0x30(%rbx,%rsi,1),%r11
    3eb9:	4c 8d 14 33          	lea    (%rbx,%rsi,1),%r10
    3ebd:	49 01 c1             	add    %rax,%r9
    3ec0:	4c 39 df             	cmp    %r11,%rdi
    3ec3:	4c 8d 5f 30          	lea    0x30(%rdi),%r11
    3ec7:	41 0f 93 c5          	setae  %r13b
    3ecb:	4d 39 da             	cmp    %r11,%r10
    3ece:	48 8d 54 35 00       	lea    0x0(%rbp,%rsi,1),%rdx
    3ed3:	41 0f 93 c3          	setae  %r11b
    3ed7:	45 09 dd             	or     %r11d,%r13d
    3eda:	49 89 fb             	mov    %rdi,%r11
    3edd:	4d 29 cb             	sub    %r9,%r11
    3ee0:	49 83 c3 02          	add    $0x2,%r11
    3ee4:	49 83 fb 2e          	cmp    $0x2e,%r11
    3ee8:	41 0f 97 c3          	seta   %r11b
    3eec:	45 21 dd             	and    %r11d,%r13d
    3eef:	49 89 d3             	mov    %rdx,%r11
    3ef2:	4d 29 cb             	sub    %r9,%r11
    3ef5:	49 83 c3 02          	add    $0x2,%r11
    3ef9:	49 83 fb 2e          	cmp    $0x2e,%r11
    3efd:	41 0f 97 c3          	seta   %r11b
    3f01:	45 21 dd             	and    %r11d,%r13d
    3f04:	49 89 c3             	mov    %rax,%r11
    3f07:	49 f7 d3             	not    %r11
    3f0a:	49 01 f3             	add    %rsi,%r11
    3f0d:	49 83 fb 2e          	cmp    $0x2e,%r11
    3f11:	41 0f 97 c3          	seta   %r11b
    3f15:	45 84 dd             	test   %r11b,%r13b
    3f18:	0f 84 68 03 00 00    	je     4286 <main+0x1f86>
    3f1e:	4c 8d 5c 33 03       	lea    0x3(%rbx,%rsi,1),%r11
    3f23:	48 89 d6             	mov    %rdx,%rsi
    3f26:	4c 29 de             	sub    %r11,%rsi
    3f29:	48 83 c6 02          	add    $0x2,%rsi
    3f2d:	48 83 fe 2e          	cmp    $0x2e,%rsi
    3f31:	0f 86 4f 03 00 00    	jbe    4286 <main+0x1f86>
    3f37:	83 7c 24 18 0e       	cmpl   $0xe,0x18(%rsp)
    3f3c:	0f 86 70 0c 00 00    	jbe    4bb2 <main+0x28b2>
    3f42:	44 89 fe             	mov    %r15d,%esi
    3f45:	4c 8d 1c 18          	lea    (%rax,%rbx,1),%r11
    3f49:	c1 ee 04             	shr    $0x4,%esi
    3f4c:	4c 6b ee 30          	imul   $0x30,%rsi,%r13
    3f50:	31 f6                	xor    %esi,%esi
    3f52:	f3 41 0f 6f 4c 33 10 	movdqu 0x10(%r11,%rsi,1),%xmm1
    3f59:	f3 41 0f 6f 44 33 20 	movdqu 0x20(%r11,%rsi,1),%xmm0
    3f60:	f3 41 0f 6f 3c 33    	movdqu (%r11,%rsi,1),%xmm7
    3f66:	0f 11 4c 37 10       	movups %xmm1,0x10(%rdi,%rsi,1)
    3f6b:	0f 11 3c 37          	movups %xmm7,(%rdi,%rsi,1)
    3f6f:	0f 11 44 37 20       	movups %xmm0,0x20(%rdi,%rsi,1)
    3f74:	f3 41 0f 6f 4c 32 10 	movdqu 0x10(%r10,%rsi,1),%xmm1
    3f7b:	f3 41 0f 6f 44 32 20 	movdqu 0x20(%r10,%rsi,1),%xmm0
    3f82:	f3 41 0f 6f 34 32    	movdqu (%r10,%rsi,1),%xmm6
    3f88:	0f 11 4c 32 10       	movups %xmm1,0x10(%rdx,%rsi,1)
    3f8d:	0f 11 34 32          	movups %xmm6,(%rdx,%rsi,1)
    3f91:	0f 11 44 32 20       	movups %xmm0,0x20(%rdx,%rsi,1)
    3f96:	48 83 c6 30          	add    $0x30,%rsi
    3f9a:	49 39 f5             	cmp    %rsi,%r13
    3f9d:	75 b3                	jne    3f52 <main+0x1c52>
    3f9f:	44 89 fa             	mov    %r15d,%edx
    3fa2:	83 e2 f0             	and    $0xfffffff0,%edx
    3fa5:	89 d6                	mov    %edx,%esi
    3fa7:	41 39 d7             	cmp    %edx,%r15d
    3faa:	0f 84 9a 02 00 00    	je     424a <main+0x1f4a>
    3fb0:	45 89 fa             	mov    %r15d,%r10d
    3fb3:	41 29 d2             	sub    %edx,%r10d
    3fb6:	45 8d 5a ff          	lea    -0x1(%r10),%r11d
    3fba:	41 83 fb 06          	cmp    $0x6,%r11d
    3fbe:	76 69                	jbe    4029 <main+0x1d29>
    3fc0:	4c 8b 4c 24 38       	mov    0x38(%rsp),%r9
    3fc5:	48 01 f1             	add    %rsi,%rcx
    3fc8:	48 8d 0c 49          	lea    (%rcx,%rcx,2),%rcx
    3fcc:	4c 01 ce             	add    %r9,%rsi
    3fcf:	4c 8d 1c 0b          	lea    (%rbx,%rcx,1),%r11
    3fd3:	48 01 e9             	add    %rbp,%rcx
    3fd6:	48 8d 34 76          	lea    (%rsi,%rsi,2),%rsi
    3fda:	4c 8d 2c 33          	lea    (%rbx,%rsi,1),%r13
    3fde:	48 01 ee             	add    %rbp,%rsi
    3fe1:	f3 41 0f 7e 45 08    	movq   0x8(%r13),%xmm0
    3fe7:	f3 41 0f 7e 4d 00    	movq   0x0(%r13),%xmm1
    3fed:	4d 8b 6d 10          	mov    0x10(%r13),%r13
    3ff1:	66 0f d6 0e          	movq   %xmm1,(%rsi)
    3ff5:	4c 89 6e 10          	mov    %r13,0x10(%rsi)
    3ff9:	66 0f d6 46 08       	movq   %xmm0,0x8(%rsi)
    3ffe:	f3 41 0f 7e 03       	movq   (%r11),%xmm0
    4003:	4d 8b 6b 08          	mov    0x8(%r11),%r13
    4007:	49 8b 73 10          	mov    0x10(%r11),%rsi
    400b:	4c 89 69 08          	mov    %r13,0x8(%rcx)
    400f:	48 89 71 10          	mov    %rsi,0x10(%rcx)
    4013:	66 0f d6 01          	movq   %xmm0,(%rcx)
    4017:	44 89 d1             	mov    %r10d,%ecx
    401a:	83 e1 f8             	and    $0xfffffff8,%ecx
    401d:	01 ca                	add    %ecx,%edx
    401f:	41 80 e2 07          	and    $0x7,%r10b
    4023:	0f 84 21 02 00 00    	je     424a <main+0x1f4a>
    4029:	41 8d 0c 10          	lea    (%r8,%rdx,1),%ecx
    402d:	48 63 c9             	movslq %ecx,%rcx
    4030:	48 8d 0c 49          	lea    (%rcx,%rcx,2),%rcx
    4034:	48 8d 34 0b          	lea    (%rbx,%rcx,1),%rsi
    4038:	48 01 e9             	add    %rbp,%rcx
    403b:	44 0f b7 16          	movzwl (%rsi),%r10d
    403f:	66 44 89 11          	mov    %r10w,(%rcx)
    4043:	0f b6 76 02          	movzbl 0x2(%rsi),%esi
    4047:	40 88 71 02          	mov    %sil,0x2(%rcx)
    404b:	41 8d 34 14          	lea    (%r12,%rdx,1),%esi
    404f:	8d 4a 01             	lea    0x1(%rdx),%ecx
    4052:	48 63 f6             	movslq %esi,%rsi
    4055:	48 8d 34 76          	lea    (%rsi,%rsi,2),%rsi
    4059:	4c 8d 14 33          	lea    (%rbx,%rsi,1),%r10
    405d:	48 01 ee             	add    %rbp,%rsi
    4060:	45 0f b7 1a          	movzwl (%r10),%r11d
    4064:	66 44 89 1e          	mov    %r11w,(%rsi)
    4068:	45 0f b6 52 02       	movzbl 0x2(%r10),%r10d
    406d:	44 88 56 02          	mov    %r10b,0x2(%rsi)
    4071:	44 39 f9             	cmp    %r15d,%ecx
    4074:	0f 8d d0 01 00 00    	jge    424a <main+0x1f4a>
    407a:	41 8d 34 08          	lea    (%r8,%rcx,1),%esi
    407e:	44 01 e1             	add    %r12d,%ecx
    4081:	48 63 f6             	movslq %esi,%rsi
    4084:	48 63 c9             	movslq %ecx,%rcx
    4087:	48 8d 34 76          	lea    (%rsi,%rsi,2),%rsi
    408b:	48 8d 0c 49          	lea    (%rcx,%rcx,2),%rcx
    408f:	4c 8d 14 33          	lea    (%rbx,%rsi,1),%r10
    4093:	48 01 ee             	add    %rbp,%rsi
    4096:	45 0f b7 1a          	movzwl (%r10),%r11d
    409a:	66 44 89 1e          	mov    %r11w,(%rsi)
    409e:	45 0f b6 52 02       	movzbl 0x2(%r10),%r10d
    40a3:	44 88 56 02          	mov    %r10b,0x2(%rsi)
    40a7:	4c 8d 14 0b          	lea    (%rbx,%rcx,1),%r10
    40ab:	48 01 e9             	add    %rbp,%rcx
    40ae:	8d 72 02             	lea    0x2(%rdx),%esi
    40b1:	45 0f b7 1a          	movzwl (%r10),%r11d
    40b5:	66 44 89 19          	mov    %r11w,(%rcx)
    40b9:	45 0f b6 52 02       	movzbl 0x2(%r10),%r10d
    40be:	44 88 51 02          	mov    %r10b,0x2(%rcx)
    40c2:	44 39 fe             	cmp    %r15d,%esi
    40c5:	0f 8d 7f 01 00 00    	jge    424a <main+0x1f4a>
    40cb:	41 8d 0c 30          	lea    (%r8,%rsi,1),%ecx
    40cf:	44 01 e6             	add    %r12d,%esi
    40d2:	48 63 c9             	movslq %ecx,%rcx
    40d5:	48 63 f6             	movslq %esi,%rsi
    40d8:	48 8d 0c 49          	lea    (%rcx,%rcx,2),%rcx
    40dc:	48 8d 34 76          	lea    (%rsi,%rsi,2),%rsi
    40e0:	4c 8d 14 0b          	lea    (%rbx,%rcx,1),%r10
    40e4:	48 01 e9             	add    %rbp,%rcx
    40e7:	45 0f b7 1a          	movzwl (%r10),%r11d
    40eb:	66 44 89 19          	mov    %r11w,(%rcx)
    40ef:	45 0f b6 52 02       	movzbl 0x2(%r10),%r10d
    40f4:	44 88 51 02          	mov    %r10b,0x2(%rcx)
    40f8:	4c 8d 14 33          	lea    (%rbx,%rsi,1),%r10
    40fc:	48 01 ee             	add    %rbp,%rsi
    40ff:	8d 4a 03             	lea    0x3(%rdx),%ecx
    4102:	45 0f b7 1a          	movzwl (%r10),%r11d
    4106:	66 44 89 1e          	mov    %r11w,(%rsi)
    410a:	45 0f b6 52 02       	movzbl 0x2(%r10),%r10d
    410f:	44 88 56 02          	mov    %r10b,0x2(%rsi)
    4113:	44 39 f9             	cmp    %r15d,%ecx
    4116:	0f 8d 2e 01 00 00    	jge    424a <main+0x1f4a>
    411c:	41 8d 34 08          	lea    (%r8,%rcx,1),%esi
    4120:	44 01 e1             	add    %r12d,%ecx
    4123:	48 63 f6             	movslq %esi,%rsi
    4126:	48 63 c9             	movslq %ecx,%rcx
    4129:	48 8d 34 76          	lea    (%rsi,%rsi,2),%rsi
    412d:	48 8d 0c 49          	lea    (%rcx,%rcx,2),%rcx
    4131:	4c 8d 14 33          	lea    (%rbx,%rsi,1),%r10
    4135:	48 01 ee             	add    %rbp,%rsi
    4138:	45 0f b7 1a          	movzwl (%r10),%r11d
    413c:	66 44 89 1e          	mov    %r11w,(%rsi)
    4140:	45 0f b6 52 02       	movzbl 0x2(%r10),%r10d
    4145:	44 88 56 02          	mov    %r10b,0x2(%rsi)
    4149:	4c 8d 14 0b          	lea    (%rbx,%rcx,1),%r10
    414d:	48 01 e9             	add    %rbp,%rcx
    4150:	8d 72 04             	lea    0x4(%rdx),%esi
    4153:	45 0f b7 1a          	movzwl (%r10),%r11d
    4157:	66 44 89 19          	mov    %r11w,(%rcx)
    415b:	45 0f b6 52 02       	movzbl 0x2(%r10),%r10d
    4160:	44 88 51 02          	mov    %r10b,0x2(%rcx)
    4164:	44 39 fe             	cmp    %r15d,%esi
    4167:	0f 8d dd 00 00 00    	jge    424a <main+0x1f4a>
    416d:	41 8d 0c 30          	lea    (%r8,%rsi,1),%ecx
    4171:	44 01 e6             	add    %r12d,%esi
    4174:	48 63 c9             	movslq %ecx,%rcx
    4177:	48 63 f6             	movslq %esi,%rsi
    417a:	48 8d 0c 49          	lea    (%rcx,%rcx,2),%rcx
    417e:	48 8d 34 76          	lea    (%rsi,%rsi,2),%rsi
    4182:	4c 8d 14 0b          	lea    (%rbx,%rcx,1),%r10
    4186:	48 01 e9             	add    %rbp,%rcx
    4189:	45 0f b7 1a          	movzwl (%r10),%r11d
    418d:	66 44 89 19          	mov    %r11w,(%rcx)
    4191:	45 0f b6 52 02       	movzbl 0x2(%r10),%r10d
    4196:	44 88 51 02          	mov    %r10b,0x2(%rcx)
    419a:	4c 8d 14 33          	lea    (%rbx,%rsi,1),%r10
    419e:	48 01 ee             	add    %rbp,%rsi
    41a1:	8d 4a 05             	lea    0x5(%rdx),%ecx
    41a4:	45 0f b7 1a          	movzwl (%r10),%r11d
    41a8:	66 44 89 1e          	mov    %r11w,(%rsi)
    41ac:	45 0f b6 52 02       	movzbl 0x2(%r10),%r10d
    41b1:	44 88 56 02          	mov    %r10b,0x2(%rsi)
    41b5:	44 39 f9             	cmp    %r15d,%ecx
    41b8:	0f 8d 8c 00 00 00    	jge    424a <main+0x1f4a>
    41be:	41 8d 34 08          	lea    (%r8,%rcx,1),%esi
    41c2:	44 01 e1             	add    %r12d,%ecx
    41c5:	83 c2 06             	add    $0x6,%edx
    41c8:	48 63 f6             	movslq %esi,%rsi
    41cb:	48 63 c9             	movslq %ecx,%rcx
    41ce:	48 8d 34 76          	lea    (%rsi,%rsi,2),%rsi
    41d2:	48 8d 0c 49          	lea    (%rcx,%rcx,2),%rcx
    41d6:	4c 8d 14 33          	lea    (%rbx,%rsi,1),%r10
    41da:	48 01 ee             	add    %rbp,%rsi
    41dd:	45 0f b7 1a          	movzwl (%r10),%r11d
    41e1:	66 44 89 1e          	mov    %r11w,(%rsi)
    41e5:	45 0f b6 52 02       	movzbl 0x2(%r10),%r10d
    41ea:	44 88 56 02          	mov    %r10b,0x2(%rsi)
    41ee:	48 8d 34 0b          	lea    (%rbx,%rcx,1),%rsi
    41f2:	48 01 e9             	add    %rbp,%rcx
    41f5:	44 0f b7 16          	movzwl (%rsi),%r10d
    41f9:	66 44 89 11          	mov    %r10w,(%rcx)
    41fd:	0f b6 76 02          	movzbl 0x2(%rsi),%esi
    4201:	40 88 71 02          	mov    %sil,0x2(%rcx)
    4205:	44 39 fa             	cmp    %r15d,%edx
    4208:	7d 40                	jge    424a <main+0x1f4a>
    420a:	41 8d 0c 10          	lea    (%r8,%rdx,1),%ecx
    420e:	44 01 e2             	add    %r12d,%edx
    4211:	48 63 c9             	movslq %ecx,%rcx
    4214:	48 63 d2             	movslq %edx,%rdx
    4217:	48 8d 0c 49          	lea    (%rcx,%rcx,2),%rcx
    421b:	48 8d 14 52          	lea    (%rdx,%rdx,2),%rdx
    421f:	48 8d 34 0b          	lea    (%rbx,%rcx,1),%rsi
    4223:	48 01 e9             	add    %rbp,%rcx
    4226:	44 0f b7 16          	movzwl (%rsi),%r10d
    422a:	66 44 89 11          	mov    %r10w,(%rcx)
    422e:	0f b6 76 02          	movzbl 0x2(%rsi),%esi
    4232:	40 88 71 02          	mov    %sil,0x2(%rcx)
    4236:	48 8d 0c 13          	lea    (%rbx,%rdx,1),%rcx
    423a:	48 01 ea             	add    %rbp,%rdx
    423d:	0f b7 31             	movzwl (%rcx),%esi
    4240:	66 89 32             	mov    %si,(%rdx)
    4243:	0f b6 49 02          	movzbl 0x2(%rcx),%ecx
    4247:	88 4a 02             	mov    %cl,0x2(%rdx)
    424a:	8b 4c 24 28          	mov    0x28(%rsp),%ecx
    424e:	8b 74 24 08          	mov    0x8(%rsp),%esi
    4252:	8d 51 02             	lea    0x2(%rcx),%edx
    4255:	48 8b 4c 24 50       	mov    0x50(%rsp),%rcx
    425a:	48 01 4c 24 30       	add    %rcx,0x30(%rsp)
    425f:	41 01 f0             	add    %esi,%r8d
    4262:	41 01 f4             	add    %esi,%r12d
    4265:	48 8b 74 24 40       	mov    0x40(%rsp),%rsi
    426a:	48 01 74 24 38       	add    %rsi,0x38(%rsp)
    426f:	48 01 c8             	add    %rcx,%rax
    4272:	48 01 cf             	add    %rcx,%rdi
    4275:	8b 4c 24 20          	mov    0x20(%rsp),%ecx
    4279:	39 ca                	cmp    %ecx,%edx
    427b:	7d 4a                	jge    42c7 <main+0x1fc7>
    427d:	89 54 24 28          	mov    %edx,0x28(%rsp)
    4281:	e9 17 fc ff ff       	jmp    3e9d <main+0x1b9d>
    4286:	48 8d 0c 49          	lea    (%rcx,%rcx,2),%rcx
    428a:	48 89 c2             	mov    %rax,%rdx
    428d:	0f b7 34 13          	movzwl (%rbx,%rdx,1),%esi
    4291:	66 89 74 15 00       	mov    %si,0x0(%rbp,%rdx,1)
    4296:	0f b6 74 13 02       	movzbl 0x2(%rbx,%rdx,1),%esi
    429b:	40 88 74 15 02       	mov    %sil,0x2(%rbp,%rdx,1)
    42a0:	0f b7 34 0b          	movzwl (%rbx,%rcx,1),%esi
    42a4:	48 83 c2 03          	add    $0x3,%rdx
    42a8:	66 89 74 0d 00       	mov    %si,0x0(%rbp,%rcx,1)
    42ad:	0f b6 74 0b 02       	movzbl 0x2(%rbx,%rcx,1),%esi
    42b2:	40 88 74 0d 02       	mov    %sil,0x2(%rbp,%rcx,1)
    42b7:	48 8b 74 24 30       	mov    0x30(%rsp),%rsi
    42bc:	48 83 c1 03          	add    $0x3,%rcx
    42c0:	48 39 f2             	cmp    %rsi,%rdx
    42c3:	75 c8                	jne    428d <main+0x1f8d>
    42c5:	eb 83                	jmp    424a <main+0x1f4a>
    42c7:	44 8b 54 24 28       	mov    0x28(%rsp),%r10d
    42cc:	8b 7c 24 60          	mov    0x60(%rsp),%edi
    42d0:	48 8b 44 24 68       	mov    0x68(%rsp),%rax
    42d5:	4c 8b 4c 24 70       	mov    0x70(%rsp),%r9
    42da:	41 83 c2 01          	add    $0x1,%r10d
    42de:	44 89 f2             	mov    %r14d,%edx
    42e1:	48 8d 0c 40          	lea    (%rax,%rax,2),%rcx
    42e5:	41 0f af d2          	imul   %r10d,%edx
    42e9:	48 89 4c 24 40       	mov    %rcx,0x40(%rsp)
    42ee:	4c 63 e2             	movslq %edx,%r12
    42f1:	4b 8d 0c 21          	lea    (%r9,%r12,1),%rcx
    42f5:	4c 8d 1c 49          	lea    (%rcx,%rcx,2),%r11
    42f9:	4b 8d 0c 64          	lea    (%r12,%r12,2),%rcx
    42fd:	48 8d 74 0d 00       	lea    0x0(%rbp,%rcx,1),%rsi
    4302:	4c 8d 2c 0b          	lea    (%rbx,%rcx,1),%r13
    4306:	44 89 f9             	mov    %r15d,%ecx
    4309:	c1 e9 04             	shr    $0x4,%ecx
    430c:	48 89 74 24 28       	mov    %rsi,0x28(%rsp)
    4311:	48 6b c9 30          	imul   $0x30,%rcx,%rcx
    4315:	48 89 4c 24 38       	mov    %rcx,0x38(%rsp)
    431a:	44 89 f9             	mov    %r15d,%ecx
    431d:	83 e1 f0             	and    $0xfffffff0,%ecx
    4320:	89 4c 24 30          	mov    %ecx,0x30(%rsp)
    4324:	44 89 f9             	mov    %r15d,%ecx
    4327:	83 e1 0f             	and    $0xf,%ecx
    432a:	89 4c 24 50          	mov    %ecx,0x50(%rsp)
    432e:	83 e9 01             	sub    $0x1,%ecx
    4331:	89 4c 24 58          	mov    %ecx,0x58(%rsp)
    4335:	44 8b 4c 24 18       	mov    0x18(%rsp),%r9d
    433a:	41 83 f9 06          	cmp    $0x6,%r9d
    433e:	76 14                	jbe    4354 <main+0x2054>
    4340:	48 8b 74 24 28       	mov    0x28(%rsp),%rsi
    4345:	4c 89 e9             	mov    %r13,%rcx
    4348:	48 f7 d1             	not    %rcx
    434b:	48 01 f1             	add    %rsi,%rcx
    434e:	48 83 f9 2e          	cmp    $0x2e,%rcx
    4352:	77 5d                	ja     43b1 <main+0x20b1>
    4354:	4b 8d 0c 64          	lea    (%r12,%r12,2),%rcx
    4358:	0f b7 34 0b          	movzwl (%rbx,%rcx,1),%esi
    435c:	66 89 74 0d 00       	mov    %si,0x0(%rbp,%rcx,1)
    4361:	0f b6 74 0b 02       	movzbl 0x2(%rbx,%rcx,1),%esi
    4366:	40 88 74 0d 02       	mov    %sil,0x2(%rbp,%rcx,1)
    436b:	48 83 c1 03          	add    $0x3,%rcx
    436f:	4c 39 d9             	cmp    %r11,%rcx
    4372:	75 e4                	jne    4358 <main+0x2058>
    4374:	48 8b 4c 24 40       	mov    0x40(%rsp),%rcx
    4379:	41 83 c2 01          	add    $0x1,%r10d
    437d:	44 01 f2             	add    %r14d,%edx
    4380:	49 01 c4             	add    %rax,%r12
    4383:	48 01 4c 24 28       	add    %rcx,0x28(%rsp)
    4388:	49 01 cb             	add    %rcx,%r11
    438b:	49 01 cd             	add    %rcx,%r13
    438e:	44 39 54 24 14       	cmp    %r10d,0x14(%rsp)
    4393:	7f a0                	jg     4335 <main+0x2035>
    4395:	39 7c 24 14          	cmp    %edi,0x14(%rsp)
    4399:	0f 8e 07 f5 ff ff    	jle    38a6 <main+0x15a6>
    439f:	45 85 f6             	test   %r14d,%r14d
    43a2:	0f 8e fe f4 ff ff    	jle    38a6 <main+0x15a6>
    43a8:	45 8d 6e ff          	lea    -0x1(%r14),%r13d
    43ac:	e9 f7 ed ff ff       	jmp    31a8 <main+0xea8>
    43b1:	41 83 f9 0e          	cmp    $0xe,%r9d
    43b5:	0f 86 c1 01 00 00    	jbe    457c <main+0x227c>
    43bb:	48 8b 4c 24 38       	mov    0x38(%rsp),%rcx
    43c0:	4e 8d 04 29          	lea    (%rcx,%r13,1),%r8
    43c4:	4c 89 e9             	mov    %r13,%rcx
    43c7:	f3 0f 6f 49 10       	movdqu 0x10(%rcx),%xmm1
    43cc:	f3 0f 6f 31          	movdqu (%rcx),%xmm6
    43d0:	48 83 c1 30          	add    $0x30,%rcx
    43d4:	48 83 c6 30          	add    $0x30,%rsi
    43d8:	f3 0f 6f 41 f0       	movdqu -0x10(%rcx),%xmm0
    43dd:	0f 11 76 d0          	movups %xmm6,-0x30(%rsi)
    43e1:	0f 11 4e e0          	movups %xmm1,-0x20(%rsi)
    43e5:	0f 11 46 f0          	movups %xmm0,-0x10(%rsi)
    43e9:	49 39 c8             	cmp    %rcx,%r8
    43ec:	75 d9                	jne    43c7 <main+0x20c7>
    43ee:	8b 4c 24 30          	mov    0x30(%rsp),%ecx
    43f2:	41 39 cf             	cmp    %ecx,%r15d
    43f5:	0f 84 79 ff ff ff    	je     4374 <main+0x2074>
    43fb:	83 7c 24 58 06       	cmpl   $0x6,0x58(%rsp)
    4400:	8b 74 24 50          	mov    0x50(%rsp),%esi
    4404:	0f 86 7f 01 00 00    	jbe    4589 <main+0x2289>
    440a:	41 89 c9             	mov    %ecx,%r9d
    440d:	4c 01 e1             	add    %r12,%rcx
    4410:	48 8d 0c 49          	lea    (%rcx,%rcx,2),%rcx
    4414:	4c 8d 04 0b          	lea    (%rbx,%rcx,1),%r8
    4418:	48 01 e9             	add    %rbp,%rcx
    441b:	f3 41 0f 7e 08       	movq   (%r8),%xmm1
    4420:	f3 41 0f 7e 40 08    	movq   0x8(%r8),%xmm0
    4426:	4d 8b 40 10          	mov    0x10(%r8),%r8
    442a:	66 0f d6 09          	movq   %xmm1,(%rcx)
    442e:	4c 89 41 10          	mov    %r8,0x10(%rcx)
    4432:	66 0f d6 41 08       	movq   %xmm0,0x8(%rcx)
    4437:	89 f1                	mov    %esi,%ecx
    4439:	83 e1 f8             	and    $0xfffffff8,%ecx
    443c:	44 01 c9             	add    %r9d,%ecx
    443f:	83 e6 07             	and    $0x7,%esi
    4442:	0f 84 2c ff ff ff    	je     4374 <main+0x2074>
    4448:	8d 34 0a             	lea    (%rdx,%rcx,1),%esi
    444b:	48 63 f6             	movslq %esi,%rsi
    444e:	48 8d 34 76          	lea    (%rsi,%rsi,2),%rsi
    4452:	4c 8d 04 33          	lea    (%rbx,%rsi,1),%r8
    4456:	48 01 ee             	add    %rbp,%rsi
    4459:	45 0f b7 08          	movzwl (%r8),%r9d
    445d:	66 44 89 0e          	mov    %r9w,(%rsi)
    4461:	45 0f b6 40 02       	movzbl 0x2(%r8),%r8d
    4466:	44 88 46 02          	mov    %r8b,0x2(%rsi)
    446a:	8d 71 01             	lea    0x1(%rcx),%esi
    446d:	44 39 fe             	cmp    %r15d,%esi
    4470:	0f 8d fe fe ff ff    	jge    4374 <main+0x2074>
    4476:	01 d6                	add    %edx,%esi
    4478:	48 63 f6             	movslq %esi,%rsi
    447b:	48 8d 34 76          	lea    (%rsi,%rsi,2),%rsi
    447f:	4c 8d 04 33          	lea    (%rbx,%rsi,1),%r8
    4483:	48 01 ee             	add    %rbp,%rsi
    4486:	45 0f b7 08          	movzwl (%r8),%r9d
    448a:	66 44 89 0e          	mov    %r9w,(%rsi)
    448e:	45 0f b6 40 02       	movzbl 0x2(%r8),%r8d
    4493:	44 88 46 02          	mov    %r8b,0x2(%rsi)
    4497:	8d 71 02             	lea    0x2(%rcx),%esi
    449a:	44 39 fe             	cmp    %r15d,%esi
    449d:	0f 8d d1 fe ff ff    	jge    4374 <main+0x2074>
    44a3:	01 d6                	add    %edx,%esi
    44a5:	48 63 f6             	movslq %esi,%rsi
    44a8:	48 8d 34 76          	lea    (%rsi,%rsi,2),%rsi
    44ac:	4c 8d 04 33          	lea    (%rbx,%rsi,1),%r8
    44b0:	48 01 ee             	add    %rbp,%rsi
    44b3:	45 0f b7 08          	movzwl (%r8),%r9d
    44b7:	66 44 89 0e          	mov    %r9w,(%rsi)
    44bb:	45 0f b6 40 02       	movzbl 0x2(%r8),%r8d
    44c0:	44 88 46 02          	mov    %r8b,0x2(%rsi)
    44c4:	8d 71 03             	lea    0x3(%rcx),%esi
    44c7:	44 39 fe             	cmp    %r15d,%esi
    44ca:	0f 8d a4 fe ff ff    	jge    4374 <main+0x2074>
    44d0:	01 d6                	add    %edx,%esi
    44d2:	48 63 f6             	movslq %esi,%rsi
    44d5:	48 8d 34 76          	lea    (%rsi,%rsi,2),%rsi
    44d9:	4c 8d 04 33          	lea    (%rbx,%rsi,1),%r8
    44dd:	48 01 ee             	add    %rbp,%rsi
    44e0:	45 0f b7 08          	movzwl (%r8),%r9d
    44e4:	66 44 89 0e          	mov    %r9w,(%rsi)
    44e8:	45 0f b6 40 02       	movzbl 0x2(%r8),%r8d
    44ed:	44 88 46 02          	mov    %r8b,0x2(%rsi)
    44f1:	8d 71 04             	lea    0x4(%rcx),%esi
    44f4:	44 39 fe             	cmp    %r15d,%esi
    44f7:	0f 8d 77 fe ff ff    	jge    4374 <main+0x2074>
    44fd:	01 d6                	add    %edx,%esi
    44ff:	48 63 f6             	movslq %esi,%rsi
    4502:	48 8d 34 76          	lea    (%rsi,%rsi,2),%rsi
    4506:	4c 8d 04 33          	lea    (%rbx,%rsi,1),%r8
    450a:	48 01 ee             	add    %rbp,%rsi
    450d:	45 0f b7 08          	movzwl (%r8),%r9d
    4511:	66 44 89 0e          	mov    %r9w,(%rsi)
    4515:	45 0f b6 40 02       	movzbl 0x2(%r8),%r8d
    451a:	44 88 46 02          	mov    %r8b,0x2(%rsi)
    451e:	8d 71 05             	lea    0x5(%rcx),%esi
    4521:	44 39 fe             	cmp    %r15d,%esi
    4524:	0f 8d 4a fe ff ff    	jge    4374 <main+0x2074>
    452a:	01 d6                	add    %edx,%esi
    452c:	83 c1 06             	add    $0x6,%ecx
    452f:	48 63 f6             	movslq %esi,%rsi
    4532:	48 8d 34 76          	lea    (%rsi,%rsi,2),%rsi
    4536:	4c 8d 04 33          	lea    (%rbx,%rsi,1),%r8
    453a:	48 01 ee             	add    %rbp,%rsi
    453d:	45 0f b7 08          	movzwl (%r8),%r9d
    4541:	66 44 89 0e          	mov    %r9w,(%rsi)
    4545:	45 0f b6 40 02       	movzbl 0x2(%r8),%r8d
    454a:	44 88 46 02          	mov    %r8b,0x2(%rsi)
    454e:	44 39 f9             	cmp    %r15d,%ecx
    4551:	0f 8d 1d fe ff ff    	jge    4374 <main+0x2074>
    4557:	01 d1                	add    %edx,%ecx
    4559:	48 63 c9             	movslq %ecx,%rcx
    455c:	48 8d 0c 49          	lea    (%rcx,%rcx,2),%rcx
    4560:	48 8d 34 0b          	lea    (%rbx,%rcx,1),%rsi
    4564:	48 01 e9             	add    %rbp,%rcx
    4567:	44 0f b7 06          	movzwl (%rsi),%r8d
    456b:	66 44 89 01          	mov    %r8w,(%rcx)
    456f:	0f b6 76 02          	movzbl 0x2(%rsi),%esi
    4573:	40 88 71 02          	mov    %sil,0x2(%rcx)
    4577:	e9 f8 fd ff ff       	jmp    4374 <main+0x2074>
    457c:	44 89 fe             	mov    %r15d,%esi
    457f:	31 c9                	xor    %ecx,%ecx
    4581:	45 31 c9             	xor    %r9d,%r9d
    4584:	e9 84 fe ff ff       	jmp    440d <main+0x210d>
    4589:	8b 4c 24 30          	mov    0x30(%rsp),%ecx
    458d:	e9 b6 fe ff ff       	jmp    4448 <main+0x2148>
    4592:	41 8d 7f ff          	lea    -0x1(%r15),%edi
    4596:	45 31 db             	xor    %r11d,%r11d
    4599:	4d 63 cf             	movslq %r15d,%r9
    459c:	49 63 c6             	movslq %r14d,%rax
    459f:	89 7c 24 18          	mov    %edi,0x18(%rsp)
    45a3:	44 89 ff             	mov    %r15d,%edi
    45a6:	48 89 7c 24 38       	mov    %rdi,0x38(%rsp)
    45ab:	48 63 7c 24 20       	movslq 0x20(%rsp),%rdi
    45b0:	48 89 7c 24 40       	mov    %rdi,0x40(%rsp)
    45b5:	44 89 f1             	mov    %r14d,%ecx
    45b8:	4c 8b 44 24 40       	mov    0x40(%rsp),%r8
    45bd:	48 8b 54 24 38       	mov    0x38(%rsp),%rdx
    45c2:	48 89 c7             	mov    %rax,%rdi
    45c5:	41 0f af cb          	imul   %r11d,%ecx
    45c9:	4c 29 cf             	sub    %r9,%rdi
    45cc:	4c 8d 14 40          	lea    (%rax,%rax,2),%r10
    45d0:	4c 01 c2             	add    %r8,%rdx
    45d3:	48 63 f1             	movslq %ecx,%rsi
    45d6:	48 01 f7             	add    %rsi,%rdi
    45d9:	48 01 f2             	add    %rsi,%rdx
    45dc:	4c 01 c6             	add    %r8,%rsi
    45df:	48 89 7c 24 30       	mov    %rdi,0x30(%rsp)
    45e4:	4c 8d 2c 76          	lea    (%rsi,%rsi,2),%r13
    45e8:	48 8d 3c 7f          	lea    (%rdi,%rdi,2),%rdi
    45ec:	44 89 fe             	mov    %r15d,%esi
    45ef:	c1 ee 04             	shr    $0x4,%esi
    45f2:	4c 8d 64 3d 00       	lea    0x0(%rbp,%rdi,1),%r12
    45f7:	48 8d 14 52          	lea    (%rdx,%rdx,2),%rdx
    45fb:	48 01 df             	add    %rbx,%rdi
    45fe:	48 89 7c 24 38       	mov    %rdi,0x38(%rsp)
    4603:	48 6b fe 30          	imul   $0x30,%rsi,%rdi
    4607:	8b 74 24 20          	mov    0x20(%rsp),%esi
    460b:	48 01 da             	add    %rbx,%rdx
    460e:	48 89 7c 24 40       	mov    %rdi,0x40(%rsp)
    4613:	44 89 ff             	mov    %r15d,%edi
    4616:	83 e7 f0             	and    $0xfffffff0,%edi
    4619:	89 7c 24 50          	mov    %edi,0x50(%rsp)
    461d:	01 f7                	add    %esi,%edi
    461f:	89 7c 24 28          	mov    %edi,0x28(%rsp)
    4623:	44 89 ff             	mov    %r15d,%edi
    4626:	83 e7 0f             	and    $0xf,%edi
    4629:	89 7c 24 58          	mov    %edi,0x58(%rsp)
    462d:	83 ef 01             	sub    $0x1,%edi
    4630:	89 7c 24 60          	mov    %edi,0x60(%rsp)
    4634:	44 8b 4c 24 18       	mov    0x18(%rsp),%r9d
    4639:	41 83 f9 06          	cmp    $0x6,%r9d
    463d:	76 14                	jbe    4653 <main+0x2353>
    463f:	48 8b 7c 24 38       	mov    0x38(%rsp),%rdi
    4644:	48 89 fe             	mov    %rdi,%rsi
    4647:	48 f7 d6             	not    %rsi
    464a:	4c 01 e6             	add    %r12,%rsi
    464d:	48 83 fe 2e          	cmp    $0x2e,%rsi
    4651:	77 4e                	ja     46a1 <main+0x23a1>
    4653:	4a 8d 34 2b          	lea    (%rbx,%r13,1),%rsi
    4657:	4a 8d 7c 2d 00       	lea    0x0(%rbp,%r13,1),%rdi
    465c:	44 0f b7 06          	movzwl (%rsi),%r8d
    4660:	48 83 c6 03          	add    $0x3,%rsi
    4664:	48 83 c7 03          	add    $0x3,%rdi
    4668:	66 44 89 47 fd       	mov    %r8w,-0x3(%rdi)
    466d:	44 0f b6 46 ff       	movzbl -0x1(%rsi),%r8d
    4672:	44 88 47 ff          	mov    %r8b,-0x1(%rdi)
    4676:	48 39 f2             	cmp    %rsi,%rdx
    4679:	75 e1                	jne    465c <main+0x235c>
    467b:	4c 01 54 24 38       	add    %r10,0x38(%rsp)
    4680:	41 83 c3 01          	add    $0x1,%r11d
    4684:	44 01 f1             	add    %r14d,%ecx
    4687:	4c 01 d2             	add    %r10,%rdx
    468a:	48 01 44 24 30       	add    %rax,0x30(%rsp)
    468f:	4d 01 d4             	add    %r10,%r12
    4692:	4d 01 d5             	add    %r10,%r13
    4695:	44 39 5c 24 14       	cmp    %r11d,0x14(%rsp)
    469a:	7f 98                	jg     4634 <main+0x2334>
    469c:	e9 4a ea ff ff       	jmp    30eb <main+0xdeb>
    46a1:	41 83 f9 0e          	cmp    $0xe,%r9d
    46a5:	0f 86 c4 01 00 00    	jbe    486f <main+0x256f>
    46ab:	48 8b 74 24 40       	mov    0x40(%rsp),%rsi
    46b0:	4e 8d 04 26          	lea    (%rsi,%r12,1),%r8
    46b4:	4c 89 e6             	mov    %r12,%rsi
    46b7:	f3 0f 6f 4f 10       	movdqu 0x10(%rdi),%xmm1
    46bc:	f3 0f 6f 2f          	movdqu (%rdi),%xmm5
    46c0:	48 83 c6 30          	add    $0x30,%rsi
    46c4:	48 83 c7 30          	add    $0x30,%rdi
    46c8:	f3 0f 6f 47 f0       	movdqu -0x10(%rdi),%xmm0
    46cd:	0f 11 6e d0          	movups %xmm5,-0x30(%rsi)
    46d1:	0f 11 4e e0          	movups %xmm1,-0x20(%rsi)
    46d5:	0f 11 46 f0          	movups %xmm0,-0x10(%rsi)
    46d9:	49 39 f0             	cmp    %rsi,%r8
    46dc:	75 d9                	jne    46b7 <main+0x23b7>
    46de:	8b 74 24 50          	mov    0x50(%rsp),%esi
    46e2:	41 39 f7             	cmp    %esi,%r15d
    46e5:	74 94                	je     467b <main+0x237b>
    46e7:	83 7c 24 60 06       	cmpl   $0x6,0x60(%rsp)
    46ec:	8b 7c 24 58          	mov    0x58(%rsp),%edi
    46f0:	0f 86 88 01 00 00    	jbe    487e <main+0x257e>
    46f6:	44 8b 4c 24 28       	mov    0x28(%rsp),%r9d
    46fb:	4c 8b 44 24 30       	mov    0x30(%rsp),%r8
    4700:	4c 01 c6             	add    %r8,%rsi
    4703:	48 8d 34 76          	lea    (%rsi,%rsi,2),%rsi
    4707:	4c 8d 04 33          	lea    (%rbx,%rsi,1),%r8
    470b:	48 01 ee             	add    %rbp,%rsi
    470e:	f3 41 0f 7e 08       	movq   (%r8),%xmm1
    4713:	f3 41 0f 7e 40 08    	movq   0x8(%r8),%xmm0
    4719:	4d 8b 40 10          	mov    0x10(%r8),%r8
    471d:	66 0f d6 0e          	movq   %xmm1,(%rsi)
    4721:	4c 89 46 10          	mov    %r8,0x10(%rsi)
    4725:	66 0f d6 46 08       	movq   %xmm0,0x8(%rsi)
    472a:	89 fe                	mov    %edi,%esi
    472c:	83 e6 f8             	and    $0xfffffff8,%esi
    472f:	44 01 ce             	add    %r9d,%esi
    4732:	83 e7 07             	and    $0x7,%edi
    4735:	0f 84 40 ff ff ff    	je     467b <main+0x237b>
    473b:	8d 3c 0e             	lea    (%rsi,%rcx,1),%edi
    473e:	48 63 ff             	movslq %edi,%rdi
    4741:	48 8d 3c 7f          	lea    (%rdi,%rdi,2),%rdi
    4745:	4c 8d 04 3b          	lea    (%rbx,%rdi,1),%r8
    4749:	48 01 ef             	add    %rbp,%rdi
    474c:	45 0f b7 08          	movzwl (%r8),%r9d
    4750:	66 44 89 0f          	mov    %r9w,(%rdi)
    4754:	45 0f b6 40 02       	movzbl 0x2(%r8),%r8d
    4759:	44 88 47 02          	mov    %r8b,0x2(%rdi)
    475d:	8d 7e 01             	lea    0x1(%rsi),%edi
    4760:	41 39 fe             	cmp    %edi,%r14d
    4763:	0f 8e 12 ff ff ff    	jle    467b <main+0x237b>
    4769:	01 cf                	add    %ecx,%edi
    476b:	48 63 ff             	movslq %edi,%rdi
    476e:	48 8d 3c 7f          	lea    (%rdi,%rdi,2),%rdi
    4772:	4c 8d 04 3b          	lea    (%rbx,%rdi,1),%r8
    4776:	48 01 ef             	add    %rbp,%rdi
    4779:	45 0f b7 08          	movzwl (%r8),%r9d
    477d:	66 44 89 0f          	mov    %r9w,(%rdi)
    4781:	45 0f b6 40 02       	movzbl 0x2(%r8),%r8d
    4786:	44 88 47 02          	mov    %r8b,0x2(%rdi)
    478a:	8d 7e 02             	lea    0x2(%rsi),%edi
    478d:	41 39 fe             	cmp    %edi,%r14d
    4790:	0f 8e e5 fe ff ff    	jle    467b <main+0x237b>
    4796:	01 cf                	add    %ecx,%edi
    4798:	48 63 ff             	movslq %edi,%rdi
    479b:	48 8d 3c 7f          	lea    (%rdi,%rdi,2),%rdi
    479f:	4c 8d 04 3b          	lea    (%rbx,%rdi,1),%r8
    47a3:	48 01 ef             	add    %rbp,%rdi
    47a6:	45 0f b7 08          	movzwl (%r8),%r9d
    47aa:	66 44 89 0f          	mov    %r9w,(%rdi)
    47ae:	45 0f b6 40 02       	movzbl 0x2(%r8),%r8d
    47b3:	44 88 47 02          	mov    %r8b,0x2(%rdi)
    47b7:	8d 7e 03             	lea    0x3(%rsi),%edi
    47ba:	41 39 fe             	cmp    %edi,%r14d
    47bd:	0f 8e b8 fe ff ff    	jle    467b <main+0x237b>
    47c3:	01 cf                	add    %ecx,%edi
    47c5:	48 63 ff             	movslq %edi,%rdi
    47c8:	48 8d 3c 7f          	lea    (%rdi,%rdi,2),%rdi
    47cc:	4c 8d 04 3b          	lea    (%rbx,%rdi,1),%r8
    47d0:	48 01 ef             	add    %rbp,%rdi
    47d3:	45 0f b7 08          	movzwl (%r8),%r9d
    47d7:	66 44 89 0f          	mov    %r9w,(%rdi)
    47db:	45 0f b6 40 02       	movzbl 0x2(%r8),%r8d
    47e0:	44 88 47 02          	mov    %r8b,0x2(%rdi)
    47e4:	8d 7e 04             	lea    0x4(%rsi),%edi
    47e7:	41 39 fe             	cmp    %edi,%r14d
    47ea:	0f 8e 8b fe ff ff    	jle    467b <main+0x237b>
    47f0:	01 cf                	add    %ecx,%edi
    47f2:	48 63 ff             	movslq %edi,%rdi
    47f5:	48 8d 3c 7f          	lea    (%rdi,%rdi,2),%rdi
    47f9:	4c 8d 04 3b          	lea    (%rbx,%rdi,1),%r8
    47fd:	48 01 ef             	add    %rbp,%rdi
    4800:	45 0f b7 08          	movzwl (%r8),%r9d
    4804:	66 44 89 0f          	mov    %r9w,(%rdi)
    4808:	45 0f b6 40 02       	movzbl 0x2(%r8),%r8d
    480d:	44 88 47 02          	mov    %r8b,0x2(%rdi)
    4811:	8d 7e 05             	lea    0x5(%rsi),%edi
    4814:	41 39 fe             	cmp    %edi,%r14d
    4817:	0f 8e 5e fe ff ff    	jle    467b <main+0x237b>
    481d:	01 cf                	add    %ecx,%edi
    481f:	83 c6 06             	add    $0x6,%esi
    4822:	48 63 ff             	movslq %edi,%rdi
    4825:	48 8d 3c 7f          	lea    (%rdi,%rdi,2),%rdi
    4829:	4c 8d 04 3b          	lea    (%rbx,%rdi,1),%r8
    482d:	48 01 ef             	add    %rbp,%rdi
    4830:	45 0f b7 08          	movzwl (%r8),%r9d
    4834:	66 44 89 0f          	mov    %r9w,(%rdi)
    4838:	45 0f b6 40 02       	movzbl 0x2(%r8),%r8d
    483d:	44 88 47 02          	mov    %r8b,0x2(%rdi)
    4841:	41 39 f6             	cmp    %esi,%r14d
    4844:	0f 8e 31 fe ff ff    	jle    467b <main+0x237b>
    484a:	01 ce                	add    %ecx,%esi
    484c:	48 63 f6             	movslq %esi,%rsi
    484f:	48 8d 34 76          	lea    (%rsi,%rsi,2),%rsi
    4853:	48 8d 3c 33          	lea    (%rbx,%rsi,1),%rdi
    4857:	48 01 ee             	add    %rbp,%rsi
    485a:	44 0f b7 07          	movzwl (%rdi),%r8d
    485e:	66 44 89 06          	mov    %r8w,(%rsi)
    4862:	0f b6 7f 02          	movzbl 0x2(%rdi),%edi
    4866:	40 88 7e 02          	mov    %dil,0x2(%rsi)
    486a:	e9 0c fe ff ff       	jmp    467b <main+0x237b>
    486f:	44 8b 4c 24 20       	mov    0x20(%rsp),%r9d
    4874:	44 89 ff             	mov    %r15d,%edi
    4877:	31 f6                	xor    %esi,%esi
    4879:	e9 7d fe ff ff       	jmp    46fb <main+0x23fb>
    487e:	8b 74 24 28          	mov    0x28(%rsp),%esi
    4882:	e9 b4 fe ff ff       	jmp    473b <main+0x243b>
    4887:	44 8b 5c 24 28       	mov    0x28(%rsp),%r11d
    488c:	48 8b 84 24 80 00 00 	mov    0x80(%rsp),%rax
    4893:	00 
    4894:	4c 8b 8c 24 88 00 00 	mov    0x88(%rsp),%r9
    489b:	00 
    489c:	41 83 c3 01          	add    $0x1,%r11d
    48a0:	e9 10 fd ff ff       	jmp    45b5 <main+0x22b5>
    48a5:	43 8d 0c 36          	lea    (%r14,%r14,1),%ecx
    48a9:	45 31 c0             	xor    %r8d,%r8d
    48ac:	45 8d 6e ff          	lea    -0x1(%r14),%r13d
    48b0:	49 63 c6             	movslq %r14d,%rax
    48b3:	89 4c 24 08          	mov    %ecx,0x8(%rsp)
    48b7:	45 89 f2             	mov    %r14d,%r10d
    48ba:	48 8d 0c 40          	lea    (%rax,%rax,2),%rcx
    48be:	45 0f af d0          	imul   %r8d,%r10d
    48c2:	48 89 4c 24 38       	mov    %rcx,0x38(%rsp)
    48c7:	4d 63 e2             	movslq %r10d,%r12
    48ca:	4b 8d 14 64          	lea    (%r12,%r12,2),%rdx
    48ce:	4a 8d 0c 20          	lea    (%rax,%r12,1),%rcx
    48d2:	48 8d 34 13          	lea    (%rbx,%rdx,1),%rsi
    48d6:	44 89 f2             	mov    %r14d,%edx
    48d9:	48 89 4c 24 28       	mov    %rcx,0x28(%rsp)
    48de:	4c 8d 1c 49          	lea    (%rcx,%rcx,2),%r11
    48e2:	c1 ea 04             	shr    $0x4,%edx
    48e5:	48 6b ca 30          	imul   $0x30,%rdx,%rcx
    48e9:	48 89 4c 24 30       	mov    %rcx,0x30(%rsp)
    48ee:	44 89 f1             	mov    %r14d,%ecx
    48f1:	83 e1 f0             	and    $0xfffffff0,%ecx
    48f4:	89 4c 24 20          	mov    %ecx,0x20(%rsp)
    48f8:	44 89 f1             	mov    %r14d,%ecx
    48fb:	83 e1 0f             	and    $0xf,%ecx
    48fe:	89 4c 24 40          	mov    %ecx,0x40(%rsp)
    4902:	83 e9 01             	sub    $0x1,%ecx
    4905:	89 4c 24 50          	mov    %ecx,0x50(%rsp)
    4909:	4b 8d 14 24          	lea    (%r12,%r12,1),%rdx
    490d:	41 83 fd 06          	cmp    $0x6,%r13d
    4911:	76 1a                	jbe    492d <main+0x262d>
    4913:	4b 8d 14 24          	lea    (%r12,%r12,1),%rdx
    4917:	49 89 f1             	mov    %rsi,%r9
    491a:	4a 8d 0c 22          	lea    (%rdx,%r12,1),%rcx
    491e:	49 f7 d1             	not    %r9
    4921:	48 01 e9             	add    %rbp,%rcx
    4924:	49 01 c9             	add    %rcx,%r9
    4927:	49 83 f9 2e          	cmp    $0x2e,%r9
    492b:	77 4b                	ja     4978 <main+0x2678>
    492d:	4c 01 e2             	add    %r12,%rdx
    4930:	0f b7 0c 13          	movzwl (%rbx,%rdx,1),%ecx
    4934:	66 89 4c 15 00       	mov    %cx,0x0(%rbp,%rdx,1)
    4939:	0f b6 4c 13 02       	movzbl 0x2(%rbx,%rdx,1),%ecx
    493e:	88 4c 15 02          	mov    %cl,0x2(%rbp,%rdx,1)
    4942:	48 83 c2 03          	add    $0x3,%rdx
    4946:	4c 39 da             	cmp    %r11,%rdx
    4949:	75 e5                	jne    4930 <main+0x2630>
    494b:	48 8b 4c 24 38       	mov    0x38(%rsp),%rcx
    4950:	41 83 c0 01          	add    $0x1,%r8d
    4954:	45 01 f2             	add    %r14d,%r10d
    4957:	49 01 cb             	add    %rcx,%r11
    495a:	48 01 ce             	add    %rcx,%rsi
    495d:	48 8b 4c 24 28       	mov    0x28(%rsp),%rcx
    4962:	49 89 cc             	mov    %rcx,%r12
    4965:	45 39 f8             	cmp    %r15d,%r8d
    4968:	0f 8d da 01 00 00    	jge    4b48 <main+0x2848>
    496e:	48 01 c1             	add    %rax,%rcx
    4971:	48 89 4c 24 28       	mov    %rcx,0x28(%rsp)
    4976:	eb 91                	jmp    4909 <main+0x2609>
    4978:	41 83 fd 0e          	cmp    $0xe,%r13d
    497c:	0f 86 ea 01 00 00    	jbe    4b6c <main+0x286c>
    4982:	48 8b 54 24 30       	mov    0x30(%rsp),%rdx
    4987:	4c 8d 0c 32          	lea    (%rdx,%rsi,1),%r9
    498b:	48 89 f2             	mov    %rsi,%rdx
    498e:	f3 0f 6f 4a 10       	movdqu 0x10(%rdx),%xmm1
    4993:	f3 0f 6f 2a          	movdqu (%rdx),%xmm5
    4997:	48 83 c2 30          	add    $0x30,%rdx
    499b:	48 83 c1 30          	add    $0x30,%rcx
    499f:	f3 0f 6f 42 f0       	movdqu -0x10(%rdx),%xmm0
    49a4:	0f 11 69 d0          	movups %xmm5,-0x30(%rcx)
    49a8:	0f 11 49 e0          	movups %xmm1,-0x20(%rcx)
    49ac:	0f 11 41 f0          	movups %xmm0,-0x10(%rcx)
    49b0:	4c 39 ca             	cmp    %r9,%rdx
    49b3:	75 d9                	jne    498e <main+0x268e>
    49b5:	8b 54 24 20          	mov    0x20(%rsp),%edx
    49b9:	44 39 f2             	cmp    %r14d,%edx
    49bc:	74 8d                	je     494b <main+0x264b>
    49be:	83 7c 24 50 06       	cmpl   $0x6,0x50(%rsp)
    49c3:	8b 4c 24 40          	mov    0x40(%rsp),%ecx
    49c7:	0f 86 ac 01 00 00    	jbe    4b79 <main+0x2879>
    49cd:	41 89 d1             	mov    %edx,%r9d
    49d0:	4c 01 e2             	add    %r12,%rdx
    49d3:	48 8d 14 52          	lea    (%rdx,%rdx,2),%rdx
    49d7:	4c 8d 24 13          	lea    (%rbx,%rdx,1),%r12
    49db:	48 01 ea             	add    %rbp,%rdx
    49de:	f3 41 0f 7e 0c 24    	movq   (%r12),%xmm1
    49e4:	f3 41 0f 7e 44 24 08 	movq   0x8(%r12),%xmm0
    49eb:	4d 8b 64 24 10       	mov    0x10(%r12),%r12
    49f0:	66 0f d6 0a          	movq   %xmm1,(%rdx)
    49f4:	4c 89 62 10          	mov    %r12,0x10(%rdx)
    49f8:	66 0f d6 42 08       	movq   %xmm0,0x8(%rdx)
    49fd:	89 ca                	mov    %ecx,%edx
    49ff:	83 e2 f8             	and    $0xfffffff8,%edx
    4a02:	44 01 ca             	add    %r9d,%edx
    4a05:	83 e1 07             	and    $0x7,%ecx
    4a08:	0f 84 3d ff ff ff    	je     494b <main+0x264b>
    4a0e:	41 8d 0c 12          	lea    (%r10,%rdx,1),%ecx
    4a12:	48 63 c9             	movslq %ecx,%rcx
    4a15:	48 8d 0c 49          	lea    (%rcx,%rcx,2),%rcx
    4a19:	4c 8d 0c 0b          	lea    (%rbx,%rcx,1),%r9
    4a1d:	48 01 e9             	add    %rbp,%rcx
    4a20:	45 0f b7 21          	movzwl (%r9),%r12d
    4a24:	66 44 89 21          	mov    %r12w,(%rcx)
    4a28:	45 0f b6 49 02       	movzbl 0x2(%r9),%r9d
    4a2d:	44 88 49 02          	mov    %r9b,0x2(%rcx)
    4a31:	8d 4a 01             	lea    0x1(%rdx),%ecx
    4a34:	41 39 ce             	cmp    %ecx,%r14d
    4a37:	0f 8e 0e ff ff ff    	jle    494b <main+0x264b>
    4a3d:	44 01 d1             	add    %r10d,%ecx
    4a40:	48 63 c9             	movslq %ecx,%rcx
    4a43:	48 8d 0c 49          	lea    (%rcx,%rcx,2),%rcx
    4a47:	4c 8d 0c 0b          	lea    (%rbx,%rcx,1),%r9
    4a4b:	48 01 e9             	add    %rbp,%rcx
    4a4e:	45 0f b7 21          	movzwl (%r9),%r12d
    4a52:	66 44 89 21          	mov    %r12w,(%rcx)
    4a56:	45 0f b6 49 02       	movzbl 0x2(%r9),%r9d
    4a5b:	44 88 49 02          	mov    %r9b,0x2(%rcx)
    4a5f:	8d 4a 02             	lea    0x2(%rdx),%ecx
    4a62:	41 39 ce             	cmp    %ecx,%r14d
    4a65:	0f 8e e0 fe ff ff    	jle    494b <main+0x264b>
    4a6b:	44 01 d1             	add    %r10d,%ecx
    4a6e:	48 63 c9             	movslq %ecx,%rcx
    4a71:	48 8d 0c 49          	lea    (%rcx,%rcx,2),%rcx
    4a75:	4c 8d 0c 0b          	lea    (%rbx,%rcx,1),%r9
    4a79:	48 01 e9             	add    %rbp,%rcx
    4a7c:	45 0f b7 21          	movzwl (%r9),%r12d
    4a80:	66 44 89 21          	mov    %r12w,(%rcx)
    4a84:	45 0f b6 49 02       	movzbl 0x2(%r9),%r9d
    4a89:	44 88 49 02          	mov    %r9b,0x2(%rcx)
    4a8d:	8d 4a 03             	lea    0x3(%rdx),%ecx
    4a90:	41 39 ce             	cmp    %ecx,%r14d
    4a93:	0f 8e b2 fe ff ff    	jle    494b <main+0x264b>
    4a99:	44 01 d1             	add    %r10d,%ecx
    4a9c:	48 63 c9             	movslq %ecx,%rcx
    4a9f:	48 8d 0c 49          	lea    (%rcx,%rcx,2),%rcx
    4aa3:	4c 8d 0c 0b          	lea    (%rbx,%rcx,1),%r9
    4aa7:	48 01 e9             	add    %rbp,%rcx
    4aaa:	45 0f b7 21          	movzwl (%r9),%r12d
    4aae:	66 44 89 21          	mov    %r12w,(%rcx)
    4ab2:	45 0f b6 49 02       	movzbl 0x2(%r9),%r9d
    4ab7:	44 88 49 02          	mov    %r9b,0x2(%rcx)
    4abb:	8d 4a 04             	lea    0x4(%rdx),%ecx
    4abe:	41 39 ce             	cmp    %ecx,%r14d
    4ac1:	0f 8e 84 fe ff ff    	jle    494b <main+0x264b>
    4ac7:	44 01 d1             	add    %r10d,%ecx
    4aca:	48 63 c9             	movslq %ecx,%rcx
    4acd:	48 8d 0c 49          	lea    (%rcx,%rcx,2),%rcx
    4ad1:	4c 8d 0c 0b          	lea    (%rbx,%rcx,1),%r9
    4ad5:	48 01 e9             	add    %rbp,%rcx
    4ad8:	45 0f b7 21          	movzwl (%r9),%r12d
    4adc:	66 44 89 21          	mov    %r12w,(%rcx)
    4ae0:	45 0f b6 49 02       	movzbl 0x2(%r9),%r9d
    4ae5:	44 88 49 02          	mov    %r9b,0x2(%rcx)
    4ae9:	8d 4a 05             	lea    0x5(%rdx),%ecx
    4aec:	41 39 ce             	cmp    %ecx,%r14d
    4aef:	0f 8e 56 fe ff ff    	jle    494b <main+0x264b>
    4af5:	44 01 d1             	add    %r10d,%ecx
    4af8:	83 c2 06             	add    $0x6,%edx
    4afb:	48 63 c9             	movslq %ecx,%rcx
    4afe:	48 8d 0c 49          	lea    (%rcx,%rcx,2),%rcx
    4b02:	4c 8d 0c 0b          	lea    (%rbx,%rcx,1),%r9
    4b06:	48 01 e9             	add    %rbp,%rcx
    4b09:	45 0f b7 21          	movzwl (%r9),%r12d
    4b0d:	66 44 89 21          	mov    %r12w,(%rcx)
    4b11:	45 0f b6 49 02       	movzbl 0x2(%r9),%r9d
    4b16:	44 88 49 02          	mov    %r9b,0x2(%rcx)
    4b1a:	41 39 d6             	cmp    %edx,%r14d
    4b1d:	0f 8e 28 fe ff ff    	jle    494b <main+0x264b>
    4b23:	44 01 d2             	add    %r10d,%edx
    4b26:	48 63 d2             	movslq %edx,%rdx
    4b29:	48 8d 14 52          	lea    (%rdx,%rdx,2),%rdx
    4b2d:	48 8d 0c 13          	lea    (%rbx,%rdx,1),%rcx
    4b31:	48 01 ea             	add    %rbp,%rdx
    4b34:	44 0f b7 09          	movzwl (%rcx),%r9d
    4b38:	66 44 89 0a          	mov    %r9w,(%rdx)
    4b3c:	0f b6 49 02          	movzbl 0x2(%rcx),%ecx
    4b40:	88 4a 02             	mov    %cl,0x2(%rdx)
    4b43:	e9 03 fe ff ff       	jmp    494b <main+0x264b>
    4b48:	8b 54 24 14          	mov    0x14(%rsp),%edx
    4b4c:	85 d2                	test   %edx,%edx
    4b4e:	0f 8f da f2 ff ff    	jg     3e2e <main+0x1b2e>
    4b54:	8b 4c 24 14          	mov    0x14(%rsp),%ecx
    4b58:	8d 51 ff             	lea    -0x1(%rcx),%edx
    4b5b:	89 54 24 20          	mov    %edx,0x20(%rsp)
    4b5f:	39 f9                	cmp    %edi,%ecx
    4b61:	0f 8f 41 e6 ff ff    	jg     31a8 <main+0xea8>
    4b67:	e9 7f e5 ff ff       	jmp    30eb <main+0xdeb>
    4b6c:	44 89 f1             	mov    %r14d,%ecx
    4b6f:	31 d2                	xor    %edx,%edx
    4b71:	45 31 c9             	xor    %r9d,%r9d
    4b74:	e9 57 fe ff ff       	jmp    49d0 <main+0x26d0>
    4b79:	8b 54 24 20          	mov    0x20(%rsp),%edx
    4b7d:	e9 8c fe ff ff       	jmp    4a0e <main+0x270e>
    4b82:	31 c9                	xor    %ecx,%ecx
    4b84:	e9 53 d9 ff ff       	jmp    24dc <main+0x1dc>
    4b89:	44 8b 44 24 20       	mov    0x20(%rsp),%r8d
    4b8e:	44 8b 7c 24 60       	mov    0x60(%rsp),%r15d
    4b93:	8b 7c 24 68          	mov    0x68(%rsp),%edi
    4b97:	48 8b 44 24 70       	mov    0x70(%rsp),%rax
    4b9c:	41 83 c0 01          	add    $0x1,%r8d
    4ba0:	e9 12 fd ff ff       	jmp    48b7 <main+0x25b7>
    4ba5:	45 89 f2             	mov    %r14d,%r10d
    4ba8:	45 31 c0             	xor    %r8d,%r8d
    4bab:	31 d2                	xor    %edx,%edx
    4bad:	e9 0a e1 ff ff       	jmp    2cbc <main+0x9bc>
    4bb2:	45 89 fa             	mov    %r15d,%r10d
    4bb5:	31 f6                	xor    %esi,%esi
    4bb7:	31 d2                	xor    %edx,%edx
    4bb9:	e9 02 f4 ff ff       	jmp    3fc0 <main+0x1cc0>
    4bbe:	e8 8d d5 ff ff       	call   2150 <__stack_chk_fail@plt>
    4bc3:	8b 7c 24 20          	mov    0x20(%rsp),%edi
    4bc7:	45 89 fa             	mov    %r15d,%r10d
    4bca:	45 31 e4             	xor    %r12d,%r12d
    4bcd:	e9 bf ee ff ff       	jmp    3a91 <main+0x1791>
    4bd2:	45 89 f0             	mov    %r14d,%r8d
    4bd5:	45 31 d2             	xor    %r10d,%r10d
    4bd8:	31 f6                	xor    %esi,%esi
    4bda:	e9 6d e7 ff ff       	jmp    334c <main+0x104c>
    4bdf:	43 8d 04 36          	lea    (%r14,%r14,1),%eax
    4be3:	89 44 24 08          	mov    %eax,0x8(%rsp)
    4be7:	e9 ba ec ff ff       	jmp    38a6 <main+0x15a6>
    4bec:	ba 16 00 00 00       	mov    $0x16,%edx
    4bf1:	48 8d 35 b2 f0 02 00 	lea    0x2f0b2(%rip),%rsi        # 33caa <_IO_stdin_used+0xcaa>
    4bf8:	48 8d 1d 21 57 03 00 	lea    0x35721(%rip),%rbx        # 3a320 <_ZSt4cerr@GLIBCXX_3.4>
    4bff:	48 89 df             	mov    %rbx,%rdi
    4c02:	e8 59 d5 ff ff       	call   2160 <_ZSt16__ostream_insertIcSt11char_traitsIcEERSt13basic_ostreamIT_T0_ES6_PKS3_l@plt>
    4c07:	48 89 df             	mov    %rbx,%rdi
    4c0a:	e8 81 54 00 00       	call   a090 <_ZSt4endlIcSt11char_traitsIcEERSt13basic_ostreamIT_T0_ES6_.isra.0>
    4c0f:	83 cf ff             	or     $0xffffffff,%edi
    4c12:	e8 89 d5 ff ff       	call   21a0 <exit@plt>
    4c17:	ba 21 00 00 00       	mov    $0x21,%edx
    4c1c:	48 8d 35 4d ea 02 00 	lea    0x2ea4d(%rip),%rsi        # 33670 <_IO_stdin_used+0x670>
    4c23:	eb d3                	jmp    4bf8 <main+0x28f8>
    4c25:	ba 24 00 00 00       	mov    $0x24,%edx
    4c2a:	48 8d 35 17 ea 02 00 	lea    0x2ea17(%rip),%rsi        # 33648 <_IO_stdin_used+0x648>
    4c31:	eb c5                	jmp    4bf8 <main+0x28f8>
    4c33:	ba 21 00 00 00       	mov    $0x21,%edx
    4c38:	48 8d 35 e1 e9 02 00 	lea    0x2e9e1(%rip),%rsi        # 33620 <_IO_stdin_used+0x620>
    4c3f:	eb b7                	jmp    4bf8 <main+0x28f8>
    4c41:	ba 29 00 00 00       	mov    $0x29,%edx
    4c46:	48 8d 35 a3 e9 02 00 	lea    0x2e9a3(%rip),%rsi        # 335f0 <_IO_stdin_used+0x5f0>
    4c4d:	eb a9                	jmp    4bf8 <main+0x28f8>
    4c4f:	e9 9c d6 ff ff       	jmp    22f0 <main.cold>
    4c54:	66 66 2e 0f 1f 84 00 	data16 cs nopw 0x0(%rax,%rax,1)
    4c5b:	00 00 00 00 
    4c5f:	90                   	nop

0000000000004c60 <_GLOBAL__sub_I_stbi_failure_reason>:
    4c60:	53                   	push   %rbx
    4c61:	48 8d 1d dc 57 03 00 	lea    0x357dc(%rip),%rbx        # 3a444 <_ZStL8__ioinit>
    4c68:	48 89 df             	mov    %rbx,%rdi
    4c6b:	e8 b0 d5 ff ff       	call   2220 <_ZNSt8ios_base4InitC1Ev@plt>
    4c70:	48 8b 3d 79 53 03 00 	mov    0x35379(%rip),%rdi        # 39ff0 <_ZNSt8ios_base4InitD1Ev@GLIBCXX_3.4>
    4c77:	48 89 de             	mov    %rbx,%rsi
    4c7a:	5b                   	pop    %rbx
    4c7b:	48 8d 15 06 55 03 00 	lea    0x35506(%rip),%rdx        # 3a188 <__dso_handle>
    4c82:	e9 89 d4 ff ff       	jmp    2110 <__cxa_atexit@plt>
    4c87:	66 0f 1f 84 00 00 00 	nopw   0x0(%rax,%rax,1)
    4c8e:	00 00 

0000000000004c90 <set_fast_math>:
    4c90:	f3 0f 1e fa          	endbr64 
    4c94:	0f ae 5c 24 fc       	stmxcsr -0x4(%rsp)
    4c99:	81 4c 24 fc 40 80 00 	orl    $0x8040,-0x4(%rsp)
    4ca0:	00 
    4ca1:	0f ae 54 24 fc       	ldmxcsr -0x4(%rsp)
    4ca6:	c3                   	ret    
    4ca7:	66 0f 1f 84 00 00 00 	nopw   0x0(%rax,%rax,1)
    4cae:	00 00 

0000000000004cb0 <_start>:
    4cb0:	f3 0f 1e fa          	endbr64 
    4cb4:	31 ed                	xor    %ebp,%ebp
    4cb6:	49 89 d1             	mov    %rdx,%r9
    4cb9:	5e                   	pop    %rsi
    4cba:	48 89 e2             	mov    %rsp,%rdx
    4cbd:	48 83 e4 f0          	and    $0xfffffffffffffff0,%rsp
    4cc1:	50                   	push   %rax
    4cc2:	54                   	push   %rsp
    4cc3:	45 31 c0             	xor    %r8d,%r8d
    4cc6:	31 c9                	xor    %ecx,%ecx
    4cc8:	48 8d 3d 31 d6 ff ff 	lea    -0x29cf(%rip),%rdi        # 2300 <main>
    4ccf:	ff 15 fb 52 03 00    	call   *0x352fb(%rip)        # 39fd0 <__libc_start_main@GLIBC_2.34>
    4cd5:	f4                   	hlt    
    4cd6:	66 2e 0f 1f 84 00 00 	cs nopw 0x0(%rax,%rax,1)
    4cdd:	00 00 00 

0000000000004ce0 <deregister_tm_clones>:
    4ce0:	48 8d 3d 19 55 03 00 	lea    0x35519(%rip),%rdi        # 3a200 <_ZSt4cout@GLIBCXX_3.4>
    4ce7:	48 8d 05 12 55 03 00 	lea    0x35512(%rip),%rax        # 3a200 <_ZSt4cout@GLIBCXX_3.4>
    4cee:	48 39 f8             	cmp    %rdi,%rax
    4cf1:	74 15                	je     4d08 <deregister_tm_clones+0x28>
    4cf3:	48 8b 05 de 52 03 00 	mov    0x352de(%rip),%rax        # 39fd8 <_ITM_deregisterTMCloneTable@Base>
    4cfa:	48 85 c0             	test   %rax,%rax
    4cfd:	74 09                	je     4d08 <deregister_tm_clones+0x28>
    4cff:	ff e0                	jmp    *%rax
    4d01:	0f 1f 80 00 00 00 00 	nopl   0x0(%rax)
    4d08:	c3                   	ret    
    4d09:	0f 1f 80 00 00 00 00 	nopl   0x0(%rax)

0000000000004d10 <register_tm_clones>:
    4d10:	48 8d 3d e9 54 03 00 	lea    0x354e9(%rip),%rdi        # 3a200 <_ZSt4cout@GLIBCXX_3.4>
    4d17:	48 8d 35 e2 54 03 00 	lea    0x354e2(%rip),%rsi        # 3a200 <_ZSt4cout@GLIBCXX_3.4>
    4d1e:	48 29 fe             	sub    %rdi,%rsi
    4d21:	48 89 f0             	mov    %rsi,%rax
    4d24:	48 c1 ee 3f          	shr    $0x3f,%rsi
    4d28:	48 c1 f8 03          	sar    $0x3,%rax
    4d2c:	48 01 c6             	add    %rax,%rsi
    4d2f:	48 d1 fe             	sar    %rsi
    4d32:	74 14                	je     4d48 <register_tm_clones+0x38>
    4d34:	48 8b 05 ad 52 03 00 	mov    0x352ad(%rip),%rax        # 39fe8 <_ITM_registerTMCloneTable@Base>
    4d3b:	48 85 c0             	test   %rax,%rax
    4d3e:	74 08                	je     4d48 <register_tm_clones+0x38>
    4d40:	ff e0                	jmp    *%rax
    4d42:	66 0f 1f 44 00 00    	nopw   0x0(%rax,%rax,1)
    4d48:	c3                   	ret    
    4d49:	0f 1f 80 00 00 00 00 	nopl   0x0(%rax)

0000000000004d50 <__do_global_dtors_aux>:
    4d50:	f3 0f 1e fa          	endbr64 
    4d54:	80 3d d5 56 03 00 00 	cmpb   $0x0,0x356d5(%rip)        # 3a430 <completed.0>
    4d5b:	75 33                	jne    4d90 <__do_global_dtors_aux+0x40>
    4d5d:	55                   	push   %rbp
    4d5e:	48 83 3d 62 52 03 00 	cmpq   $0x0,0x35262(%rip)        # 39fc8 <__cxa_finalize@GLIBC_2.2.5>
    4d65:	00 
    4d66:	48 89 e5             	mov    %rsp,%rbp
    4d69:	74 0d                	je     4d78 <__do_global_dtors_aux+0x28>
    4d6b:	48 8b 3d 16 54 03 00 	mov    0x35416(%rip),%rdi        # 3a188 <__dso_handle>
    4d72:	ff 15 50 52 03 00    	call   *0x35250(%rip)        # 39fc8 <__cxa_finalize@GLIBC_2.2.5>
    4d78:	e8 63 ff ff ff       	call   4ce0 <deregister_tm_clones>
    4d7d:	c6 05 ac 56 03 00 01 	movb   $0x1,0x356ac(%rip)        # 3a430 <completed.0>
    4d84:	5d                   	pop    %rbp
    4d85:	c3                   	ret    
    4d86:	66 2e 0f 1f 84 00 00 	cs nopw 0x0(%rax,%rax,1)
    4d8d:	00 00 00 
    4d90:	c3                   	ret    
    4d91:	66 66 2e 0f 1f 84 00 	data16 cs nopw 0x0(%rax,%rax,1)
    4d98:	00 00 00 00 
    4d9c:	0f 1f 40 00          	nopl   0x0(%rax)

0000000000004da0 <frame_dummy>:
    4da0:	f3 0f 1e fa          	endbr64 
    4da4:	e9 67 ff ff ff       	jmp    4d10 <register_tm_clones>
    4da9:	0f 1f 80 00 00 00 00 	nopl   0x0(%rax)

0000000000004db0 <_ZL21stbi__mad3sizes_validiiii>:
    4db0:	89 f8                	mov    %edi,%eax
    4db2:	45 31 c9             	xor    %r9d,%r9d
    4db5:	41 89 d0             	mov    %edx,%r8d
    4db8:	09 f0                	or     %esi,%eax
    4dba:	78 29                	js     4de5 <_ZL21stbi__mad3sizes_validiiii+0x35>
    4dbc:	85 f6                	test   %esi,%esi
    4dbe:	74 30                	je     4df0 <_ZL21stbi__mad3sizes_validiiii+0x40>
    4dc0:	b8 ff ff ff 7f       	mov    $0x7fffffff,%eax
    4dc5:	31 d2                	xor    %edx,%edx
    4dc7:	f7 fe                	idiv   %esi
    4dc9:	39 c7                	cmp    %eax,%edi
    4dcb:	7f 18                	jg     4de5 <_ZL21stbi__mad3sizes_validiiii+0x35>
    4dcd:	45 85 c0             	test   %r8d,%r8d
    4dd0:	78 13                	js     4de5 <_ZL21stbi__mad3sizes_validiiii+0x35>
    4dd2:	74 4c                	je     4e20 <_ZL21stbi__mad3sizes_validiiii+0x70>
    4dd4:	b8 ff ff ff 7f       	mov    $0x7fffffff,%eax
    4dd9:	0f af f7             	imul   %edi,%esi
    4ddc:	31 d2                	xor    %edx,%edx
    4dde:	41 f7 f8             	idiv   %r8d
    4de1:	39 c6                	cmp    %eax,%esi
    4de3:	7e 2b                	jle    4e10 <_ZL21stbi__mad3sizes_validiiii+0x60>
    4de5:	44 89 c8             	mov    %r9d,%eax
    4de8:	c3                   	ret    
    4de9:	0f 1f 80 00 00 00 00 	nopl   0x0(%rax)
    4df0:	85 d2                	test   %edx,%edx
    4df2:	78 f1                	js     4de5 <_ZL21stbi__mad3sizes_validiiii+0x35>
    4df4:	b8 ff ff ff 7f       	mov    $0x7fffffff,%eax
    4df9:	45 31 c9             	xor    %r9d,%r9d
    4dfc:	29 c8                	sub    %ecx,%eax
    4dfe:	39 f0                	cmp    %esi,%eax
    4e00:	41 0f 9d c1          	setge  %r9b
    4e04:	44 89 c8             	mov    %r9d,%eax
    4e07:	c3                   	ret    
    4e08:	0f 1f 84 00 00 00 00 	nopl   0x0(%rax,%rax,1)
    4e0f:	00 
    4e10:	41 0f af f0          	imul   %r8d,%esi
    4e14:	eb de                	jmp    4df4 <_ZL21stbi__mad3sizes_validiiii+0x44>
    4e16:	66 2e 0f 1f 84 00 00 	cs nopw 0x0(%rax,%rax,1)
    4e1d:	00 00 00 
    4e20:	31 f6                	xor    %esi,%esi
    4e22:	eb d0                	jmp    4df4 <_ZL21stbi__mad3sizes_validiiii+0x44>
    4e24:	66 66 2e 0f 1f 84 00 	data16 cs nopw 0x0(%rax,%rax,1)
    4e2b:	00 00 00 00 
    4e2f:	90                   	nop

0000000000004e30 <_ZL19stbi__refill_bufferP13stbi__context>:
    4e30:	55                   	push   %rbp
    4e31:	48 8d 6f 38          	lea    0x38(%rdi),%rbp
    4e35:	53                   	push   %rbx
    4e36:	48 89 fb             	mov    %rdi,%rbx
    4e39:	48 89 ee             	mov    %rbp,%rsi
    4e3c:	48 83 ec 08          	sub    $0x8,%rsp
    4e40:	8b 57 34             	mov    0x34(%rdi),%edx
    4e43:	48 8b 7f 28          	mov    0x28(%rdi),%rdi
    4e47:	ff 53 10             	call   *0x10(%rbx)
    4e4a:	48 8b 93 c0 00 00 00 	mov    0xc0(%rbx),%rdx
    4e51:	48 2b 93 d0 00 00 00 	sub    0xd0(%rbx),%rdx
    4e58:	01 93 b8 00 00 00    	add    %edx,0xb8(%rbx)
    4e5e:	85 c0                	test   %eax,%eax
    4e60:	75 2e                	jne    4e90 <_ZL19stbi__refill_bufferP13stbi__context+0x60>
    4e62:	c7 43 30 00 00 00 00 	movl   $0x0,0x30(%rbx)
    4e69:	48 8d 43 39          	lea    0x39(%rbx),%rax
    4e6d:	c6 43 38 00          	movb   $0x0,0x38(%rbx)
    4e71:	48 89 83 c8 00 00 00 	mov    %rax,0xc8(%rbx)
    4e78:	48 89 ab c0 00 00 00 	mov    %rbp,0xc0(%rbx)
    4e7f:	48 83 c4 08          	add    $0x8,%rsp
    4e83:	5b                   	pop    %rbx
    4e84:	5d                   	pop    %rbp
    4e85:	c3                   	ret    
    4e86:	66 2e 0f 1f 84 00 00 	cs nopw 0x0(%rax,%rax,1)
    4e8d:	00 00 00 
    4e90:	48 98                	cltq   
    4e92:	48 01 e8             	add    %rbp,%rax
    4e95:	eb da                	jmp    4e71 <_ZL19stbi__refill_bufferP13stbi__context+0x41>
    4e97:	66 0f 1f 84 00 00 00 	nopw   0x0(%rax,%rax,1)
    4e9e:	00 00 

0000000000004ea0 <_ZL14resample_row_1PhS_S_ii>:
    4ea0:	48 89 f0             	mov    %rsi,%rax
    4ea3:	c3                   	ret    
    4ea4:	66 66 2e 0f 1f 84 00 	data16 cs nopw 0x0(%rax,%rax,1)
    4eab:	00 00 00 00 
    4eaf:	90                   	nop

0000000000004eb0 <_ZL22stbi__resample_row_v_2PhS_S_ii>:
    4eb0:	49 89 d0             	mov    %rdx,%r8
    4eb3:	89 c8                	mov    %ecx,%eax
    4eb5:	85 c9                	test   %ecx,%ecx
    4eb7:	0f 8e 8c 02 00 00    	jle    5149 <_ZL22stbi__resample_row_v_2PhS_S_ii+0x299>
    4ebd:	8d 51 ff             	lea    -0x1(%rcx),%edx
    4ec0:	41 89 c9             	mov    %ecx,%r9d
    4ec3:	83 fa 06             	cmp    $0x6,%edx
    4ec6:	0f 86 84 02 00 00    	jbe    5150 <_ZL22stbi__resample_row_v_2PhS_S_ii+0x2a0>
    4ecc:	4c 8d 56 01          	lea    0x1(%rsi),%r10
    4ed0:	48 89 f9             	mov    %rdi,%rcx
    4ed3:	4c 29 d1             	sub    %r10,%rcx
    4ed6:	48 83 f9 0e          	cmp    $0xe,%rcx
    4eda:	0f 86 70 02 00 00    	jbe    5150 <_ZL22stbi__resample_row_v_2PhS_S_ii+0x2a0>
    4ee0:	4d 8d 50 01          	lea    0x1(%r8),%r10
    4ee4:	48 89 f9             	mov    %rdi,%rcx
    4ee7:	4c 29 d1             	sub    %r10,%rcx
    4eea:	48 83 f9 0e          	cmp    $0xe,%rcx
    4eee:	0f 86 5c 02 00 00    	jbe    5150 <_ZL22stbi__resample_row_v_2PhS_S_ii+0x2a0>
    4ef4:	83 fa 0e             	cmp    $0xe,%edx
    4ef7:	0f 86 80 02 00 00    	jbe    517d <_ZL22stbi__resample_row_v_2PhS_S_ii+0x2cd>
    4efd:	89 c1                	mov    %eax,%ecx
    4eff:	66 0f 6f 2d 79 0e 03 	movdqa 0x30e79(%rip),%xmm5        # 35d80 <_ZL11stbi__bmask+0x60>
    4f06:	00 
    4f07:	31 d2                	xor    %edx,%edx
    4f09:	66 0f ef d2          	pxor   %xmm2,%xmm2
    4f0d:	c1 e9 04             	shr    $0x4,%ecx
    4f10:	66 0f 6f 25 78 0e 03 	movdqa 0x30e78(%rip),%xmm4        # 35d90 <_ZL11stbi__bmask+0x70>
    4f17:	00 
    4f18:	66 0f 6f 1d 80 0e 03 	movdqa 0x30e80(%rip),%xmm3        # 35da0 <_ZL11stbi__bmask+0x80>
    4f1f:	00 
    4f20:	48 c1 e1 04          	shl    $0x4,%rcx
    4f24:	0f 1f 40 00          	nopl   0x0(%rax)
    4f28:	f3 0f 6f 04 16       	movdqu (%rsi,%rdx,1),%xmm0
    4f2d:	f3 41 0f 6f 34 10    	movdqu (%r8,%rdx,1),%xmm6
    4f33:	66 0f 6f c8          	movdqa %xmm0,%xmm1
    4f37:	66 0f 68 c2          	punpckhbw %xmm2,%xmm0
    4f3b:	66 0f 6f fe          	movdqa %xmm6,%xmm7
    4f3f:	66 0f 60 ca          	punpcklbw %xmm2,%xmm1
    4f43:	66 0f d5 c3          	pmullw %xmm3,%xmm0
    4f47:	66 0f 60 fa          	punpcklbw %xmm2,%xmm7
    4f4b:	66 0f d5 cb          	pmullw %xmm3,%xmm1
    4f4f:	66 0f 68 f2          	punpckhbw %xmm2,%xmm6
    4f53:	66 0f fd c6          	paddw  %xmm6,%xmm0
    4f57:	66 0f fd cf          	paddw  %xmm7,%xmm1
    4f5b:	66 0f fd c5          	paddw  %xmm5,%xmm0
    4f5f:	66 0f fd cd          	paddw  %xmm5,%xmm1
    4f63:	66 0f 71 d0 02       	psrlw  $0x2,%xmm0
    4f68:	66 0f 71 d1 02       	psrlw  $0x2,%xmm1
    4f6d:	66 0f db c4          	pand   %xmm4,%xmm0
    4f71:	66 0f db cc          	pand   %xmm4,%xmm1
    4f75:	66 0f 67 c8          	packuswb %xmm0,%xmm1
    4f79:	0f 11 0c 17          	movups %xmm1,(%rdi,%rdx,1)
    4f7d:	48 83 c2 10          	add    $0x10,%rdx
    4f81:	48 39 d1             	cmp    %rdx,%rcx
    4f84:	75 a2                	jne    4f28 <_ZL22stbi__resample_row_v_2PhS_S_ii+0x78>
    4f86:	89 c2                	mov    %eax,%edx
    4f88:	83 e2 f0             	and    $0xfffffff0,%edx
    4f8b:	89 d1                	mov    %edx,%ecx
    4f8d:	39 d0                	cmp    %edx,%eax
    4f8f:	0f 84 b4 01 00 00    	je     5149 <_ZL22stbi__resample_row_v_2PhS_S_ii+0x299>
    4f95:	41 89 c1             	mov    %eax,%r9d
    4f98:	41 29 d1             	sub    %edx,%r9d
    4f9b:	45 8d 51 ff          	lea    -0x1(%r9),%r10d
    4f9f:	41 83 fa 06          	cmp    $0x6,%r10d
    4fa3:	0f 86 9d 00 00 00    	jbe    5046 <_ZL22stbi__resample_row_v_2PhS_S_ii+0x196>
    4fa9:	f3 0f 7e 14 0e       	movq   (%rsi,%rcx,1),%xmm2
    4fae:	66 0f ef db          	pxor   %xmm3,%xmm3
    4fb2:	f3 41 0f 7e 24 08    	movq   (%r8,%rcx,1),%xmm4
    4fb8:	f3 0f 7e 0d c0 0d 03 	movq   0x30dc0(%rip),%xmm1        # 35d80 <_ZL11stbi__bmask+0x60>
    4fbf:	00 
    4fc0:	66 0f 6f f2          	movdqa %xmm2,%xmm6
    4fc4:	66 0f 60 d3          	punpcklbw %xmm3,%xmm2
    4fc8:	66 0f 6f c4          	movdqa %xmm4,%xmm0
    4fcc:	66 0f 60 f3          	punpcklbw %xmm3,%xmm6
    4fd0:	66 0f 70 d2 4e       	pshufd $0x4e,%xmm2,%xmm2
    4fd5:	66 0f 60 c3          	punpcklbw %xmm3,%xmm0
    4fd9:	66 0f 60 e3          	punpcklbw %xmm3,%xmm4
    4fdd:	66 0f 6f ee          	movdqa %xmm6,%xmm5
    4fe1:	66 0f 6f da          	movdqa %xmm2,%xmm3
    4fe5:	66 0f 71 f5 01       	psllw  $0x1,%xmm5
    4fea:	66 0f 70 e4 4e       	pshufd $0x4e,%xmm4,%xmm4
    4fef:	66 0f fd c1          	paddw  %xmm1,%xmm0
    4ff3:	66 0f 71 f3 01       	psllw  $0x1,%xmm3
    4ff8:	66 0f fd ee          	paddw  %xmm6,%xmm5
    4ffc:	66 0f fd cc          	paddw  %xmm4,%xmm1
    5000:	66 0f fd d3          	paddw  %xmm3,%xmm2
    5004:	66 0f fd c5          	paddw  %xmm5,%xmm0
    5008:	66 0f fd ca          	paddw  %xmm2,%xmm1
    500c:	f3 0f 7e 15 7c 0d 03 	movq   0x30d7c(%rip),%xmm2        # 35d90 <_ZL11stbi__bmask+0x70>
    5013:	00 
    5014:	66 0f 71 d0 02       	psrlw  $0x2,%xmm0
    5019:	66 0f 71 d1 02       	psrlw  $0x2,%xmm1
    501e:	66 0f db c2          	pand   %xmm2,%xmm0
    5022:	66 0f db d1          	pand   %xmm1,%xmm2
    5026:	66 0f 67 c2          	packuswb %xmm2,%xmm0
    502a:	66 0f 70 c0 08       	pshufd $0x8,%xmm0,%xmm0
    502f:	66 0f d6 04 0f       	movq   %xmm0,(%rdi,%rcx,1)
    5034:	44 89 c9             	mov    %r9d,%ecx
    5037:	83 e1 f8             	and    $0xfffffff8,%ecx
    503a:	01 ca                	add    %ecx,%edx
    503c:	41 83 e1 07          	and    $0x7,%r9d
    5040:	0f 84 03 01 00 00    	je     5149 <_ZL22stbi__resample_row_v_2PhS_S_ii+0x299>
    5046:	48 63 ca             	movslq %edx,%rcx
    5049:	44 0f b6 0c 0e       	movzbl (%rsi,%rcx,1),%r9d
    504e:	47 8d 14 49          	lea    (%r9,%r9,2),%r10d
    5052:	45 0f b6 0c 08       	movzbl (%r8,%rcx,1),%r9d
    5057:	47 8d 4c 0a 02       	lea    0x2(%r10,%r9,1),%r9d
    505c:	41 c1 f9 02          	sar    $0x2,%r9d
    5060:	44 88 0c 0f          	mov    %r9b,(%rdi,%rcx,1)
    5064:	8d 4a 01             	lea    0x1(%rdx),%ecx
    5067:	39 c8                	cmp    %ecx,%eax
    5069:	0f 8e da 00 00 00    	jle    5149 <_ZL22stbi__resample_row_v_2PhS_S_ii+0x299>
    506f:	48 63 c9             	movslq %ecx,%rcx
    5072:	44 0f b6 0c 0e       	movzbl (%rsi,%rcx,1),%r9d
    5077:	47 8d 14 49          	lea    (%r9,%r9,2),%r10d
    507b:	45 0f b6 0c 08       	movzbl (%r8,%rcx,1),%r9d
    5080:	47 8d 4c 0a 02       	lea    0x2(%r10,%r9,1),%r9d
    5085:	41 c1 f9 02          	sar    $0x2,%r9d
    5089:	44 88 0c 0f          	mov    %r9b,(%rdi,%rcx,1)
    508d:	8d 4a 02             	lea    0x2(%rdx),%ecx
    5090:	39 c8                	cmp    %ecx,%eax
    5092:	0f 8e b1 00 00 00    	jle    5149 <_ZL22stbi__resample_row_v_2PhS_S_ii+0x299>
    5098:	48 63 c9             	movslq %ecx,%rcx
    509b:	44 0f b6 0c 0e       	movzbl (%rsi,%rcx,1),%r9d
    50a0:	47 8d 14 49          	lea    (%r9,%r9,2),%r10d
    50a4:	45 0f b6 0c 08       	movzbl (%r8,%rcx,1),%r9d
    50a9:	47 8d 4c 0a 02       	lea    0x2(%r10,%r9,1),%r9d
    50ae:	41 c1 f9 02          	sar    $0x2,%r9d
    50b2:	44 88 0c 0f          	mov    %r9b,(%rdi,%rcx,1)
    50b6:	8d 4a 03             	lea    0x3(%rdx),%ecx
    50b9:	39 c8                	cmp    %ecx,%eax
    50bb:	0f 8e 88 00 00 00    	jle    5149 <_ZL22stbi__resample_row_v_2PhS_S_ii+0x299>
    50c1:	48 63 c9             	movslq %ecx,%rcx
    50c4:	44 0f b6 0c 0e       	movzbl (%rsi,%rcx,1),%r9d
    50c9:	47 8d 14 49          	lea    (%r9,%r9,2),%r10d
    50cd:	45 0f b6 0c 08       	movzbl (%r8,%rcx,1),%r9d
    50d2:	47 8d 4c 0a 02       	lea    0x2(%r10,%r9,1),%r9d
    50d7:	41 c1 f9 02          	sar    $0x2,%r9d
    50db:	44 88 0c 0f          	mov    %r9b,(%rdi,%rcx,1)
    50df:	8d 4a 04             	lea    0x4(%rdx),%ecx
    50e2:	39 c8                	cmp    %ecx,%eax
    50e4:	7e 63                	jle    5149 <_ZL22stbi__resample_row_v_2PhS_S_ii+0x299>
    50e6:	48 63 c9             	movslq %ecx,%rcx
    50e9:	44 0f b6 0c 0e       	movzbl (%rsi,%rcx,1),%r9d
    50ee:	47 8d 14 49          	lea    (%r9,%r9,2),%r10d
    50f2:	45 0f b6 0c 08       	movzbl (%r8,%rcx,1),%r9d
    50f7:	47 8d 4c 0a 02       	lea    0x2(%r10,%r9,1),%r9d
    50fc:	41 c1 f9 02          	sar    $0x2,%r9d
    5100:	44 88 0c 0f          	mov    %r9b,(%rdi,%rcx,1)
    5104:	8d 4a 05             	lea    0x5(%rdx),%ecx
    5107:	39 c8                	cmp    %ecx,%eax
    5109:	7e 3e                	jle    5149 <_ZL22stbi__resample_row_v_2PhS_S_ii+0x299>
    510b:	48 63 c9             	movslq %ecx,%rcx
    510e:	83 c2 06             	add    $0x6,%edx
    5111:	44 0f b6 0c 0e       	movzbl (%rsi,%rcx,1),%r9d
    5116:	47 8d 14 49          	lea    (%r9,%r9,2),%r10d
    511a:	45 0f b6 0c 08       	movzbl (%r8,%rcx,1),%r9d
    511f:	47 8d 4c 0a 02       	lea    0x2(%r10,%r9,1),%r9d
    5124:	41 c1 f9 02          	sar    $0x2,%r9d
    5128:	44 88 0c 0f          	mov    %r9b,(%rdi,%rcx,1)
    512c:	39 d0                	cmp    %edx,%eax
    512e:	7e 19                	jle    5149 <_ZL22stbi__resample_row_v_2PhS_S_ii+0x299>
    5130:	48 63 d2             	movslq %edx,%rdx
    5133:	0f b6 04 16          	movzbl (%rsi,%rdx,1),%eax
    5137:	8d 0c 40             	lea    (%rax,%rax,2),%ecx
    513a:	41 0f b6 04 10       	movzbl (%r8,%rdx,1),%eax
    513f:	8d 44 01 02          	lea    0x2(%rcx,%rax,1),%eax
    5143:	c1 f8 02             	sar    $0x2,%eax
    5146:	88 04 17             	mov    %al,(%rdi,%rdx,1)
    5149:	48 89 f8             	mov    %rdi,%rax
    514c:	c3                   	ret    
    514d:	0f 1f 00             	nopl   (%rax)
    5150:	48 63 c8             	movslq %eax,%rcx
    5153:	31 c0                	xor    %eax,%eax
    5155:	0f 1f 00             	nopl   (%rax)
    5158:	0f b6 14 06          	movzbl (%rsi,%rax,1),%edx
    515c:	44 8d 0c 52          	lea    (%rdx,%rdx,2),%r9d
    5160:	41 0f b6 14 00       	movzbl (%r8,%rax,1),%edx
    5165:	41 8d 54 11 02       	lea    0x2(%r9,%rdx,1),%edx
    516a:	c1 fa 02             	sar    $0x2,%edx
    516d:	88 14 07             	mov    %dl,(%rdi,%rax,1)
    5170:	48 83 c0 01          	add    $0x1,%rax
    5174:	48 39 c1             	cmp    %rax,%rcx
    5177:	75 df                	jne    5158 <_ZL22stbi__resample_row_v_2PhS_S_ii+0x2a8>
    5179:	48 89 f8             	mov    %rdi,%rax
    517c:	c3                   	ret    
    517d:	31 c9                	xor    %ecx,%ecx
    517f:	31 d2                	xor    %edx,%edx
    5181:	e9 23 fe ff ff       	jmp    4fa9 <_ZL22stbi__resample_row_v_2PhS_S_ii+0xf9>
    5186:	66 2e 0f 1f 84 00 00 	cs nopw 0x0(%rax,%rax,1)
    518d:	00 00 00 

0000000000005190 <_ZL26stbi__resample_row_genericPhS_S_ii>:
    5190:	49 89 f9             	mov    %rdi,%r9
    5193:	85 c9                	test   %ecx,%ecx
    5195:	0f 8e 03 02 00 00    	jle    539e <_ZL26stbi__resample_row_genericPhS_S_ii+0x20e>
    519b:	45 85 c0             	test   %r8d,%r8d
    519e:	0f 8e fa 01 00 00    	jle    539e <_ZL26stbi__resample_row_genericPhS_S_ii+0x20e>
    51a4:	41 57                	push   %r15
    51a6:	48 63 c9             	movslq %ecx,%rcx
    51a9:	44 89 c2             	mov    %r8d,%edx
    51ac:	48 89 f0             	mov    %rsi,%rax
    51af:	41 56                	push   %r14
    51b1:	4c 8d 3c 0e          	lea    (%rsi,%rcx,1),%r15
    51b5:	44 89 c1             	mov    %r8d,%ecx
    51b8:	c1 ea 04             	shr    $0x4,%edx
    51bb:	41 55                	push   %r13
    51bd:	83 e1 0f             	and    $0xf,%ecx
    51c0:	44 89 c6             	mov    %r8d,%esi
    51c3:	48 c1 e2 04          	shl    $0x4,%rdx
    51c7:	41 54                	push   %r12
    51c9:	83 e6 f0             	and    $0xfffffff0,%esi
    51cc:	45 8d 68 ff          	lea    -0x1(%r8),%r13d
    51d0:	55                   	push   %rbp
    51d1:	53                   	push   %rbx
    51d2:	49 63 d8             	movslq %r8d,%rbx
    51d5:	4c 8d 34 1f          	lea    (%rdi,%rbx,1),%r14
    51d9:	89 4c 24 f0          	mov    %ecx,-0x10(%rsp)
    51dd:	83 e9 01             	sub    $0x1,%ecx
    51e0:	89 4c 24 f4          	mov    %ecx,-0xc(%rsp)
    51e4:	48 89 54 24 e8       	mov    %rdx,-0x18(%rsp)
    51e9:	4c 89 f2             	mov    %r14,%rdx
    51ec:	89 74 24 e4          	mov    %esi,-0x1c(%rsp)
    51f0:	31 f6                	xor    %esi,%esi
    51f2:	66 0f 1f 44 00 00    	nopw   0x0(%rax,%rax,1)
    51f8:	41 83 fd 06          	cmp    $0x6,%r13d
    51fc:	0f 86 7e 01 00 00    	jbe    5380 <_ZL26stbi__resample_row_genericPhS_S_ii+0x1f0>
    5202:	49 89 d3             	mov    %rdx,%r11
    5205:	4c 8d 50 01          	lea    0x1(%rax),%r10
    5209:	4d 29 f3             	sub    %r14,%r11
    520c:	4c 39 d7             	cmp    %r10,%rdi
    520f:	73 3f                	jae    5250 <_ZL26stbi__resample_row_genericPhS_S_ii+0xc0>
    5211:	48 8d 0c 3b          	lea    (%rbx,%rdi,1),%rcx
    5215:	48 39 c8             	cmp    %rcx,%rax
    5218:	73 36                	jae    5250 <_ZL26stbi__resample_row_genericPhS_S_ii+0xc0>
    521a:	48 89 f9             	mov    %rdi,%rcx
    521d:	0f 1f 00             	nopl   (%rax)
    5220:	44 0f b6 18          	movzbl (%rax),%r11d
    5224:	48 83 c1 01          	add    $0x1,%rcx
    5228:	44 88 59 ff          	mov    %r11b,-0x1(%rcx)
    522c:	48 39 d1             	cmp    %rdx,%rcx
    522f:	75 ef                	jne    5220 <_ZL26stbi__resample_row_genericPhS_S_ii+0x90>
    5231:	48 01 df             	add    %rbx,%rdi
    5234:	44 01 c6             	add    %r8d,%esi
    5237:	4c 89 d0             	mov    %r10,%rax
    523a:	48 01 da             	add    %rbx,%rdx
    523d:	4d 39 fa             	cmp    %r15,%r10
    5240:	75 b6                	jne    51f8 <_ZL26stbi__resample_row_genericPhS_S_ii+0x68>
    5242:	5b                   	pop    %rbx
    5243:	4c 89 c8             	mov    %r9,%rax
    5246:	5d                   	pop    %rbp
    5247:	41 5c                	pop    %r12
    5249:	41 5d                	pop    %r13
    524b:	41 5e                	pop    %r14
    524d:	41 5f                	pop    %r15
    524f:	c3                   	ret    
    5250:	41 83 fd 0e          	cmp    $0xe,%r13d
    5254:	0f 86 32 01 00 00    	jbe    538c <_ZL26stbi__resample_row_genericPhS_S_ii+0x1fc>
    525a:	0f b6 08             	movzbl (%rax),%ecx
    525d:	66 0f 6e c1          	movd   %ecx,%xmm0
    5261:	48 8b 4c 24 e8       	mov    -0x18(%rsp),%rcx
    5266:	66 0f 60 c0          	punpcklbw %xmm0,%xmm0
    526a:	66 0f 61 c0          	punpcklwd %xmm0,%xmm0
    526e:	48 8d 2c 39          	lea    (%rcx,%rdi,1),%rbp
    5272:	48 89 f9             	mov    %rdi,%rcx
    5275:	66 0f 70 c0 00       	pshufd $0x0,%xmm0,%xmm0
    527a:	66 0f 1f 44 00 00    	nopw   0x0(%rax,%rax,1)
    5280:	0f 11 01             	movups %xmm0,(%rcx)
    5283:	48 83 c1 10          	add    $0x10,%rcx
    5287:	48 39 e9             	cmp    %rbp,%rcx
    528a:	75 f4                	jne    5280 <_ZL26stbi__resample_row_genericPhS_S_ii+0xf0>
    528c:	8b 4c 24 e4          	mov    -0x1c(%rsp),%ecx
    5290:	44 39 c1             	cmp    %r8d,%ecx
    5293:	74 9c                	je     5231 <_ZL26stbi__resample_row_genericPhS_S_ii+0xa1>
    5295:	83 7c 24 f4 06       	cmpl   $0x6,-0xc(%rsp)
    529a:	44 8b 64 24 f0       	mov    -0x10(%rsp),%r12d
    529f:	76 35                	jbe    52d6 <_ZL26stbi__resample_row_genericPhS_S_ii+0x146>
    52a1:	89 4c 24 e0          	mov    %ecx,-0x20(%rsp)
    52a5:	89 cd                	mov    %ecx,%ebp
    52a7:	0f b6 08             	movzbl (%rax),%ecx
    52aa:	4d 01 cb             	add    %r9,%r11
    52ad:	88 cd                	mov    %cl,%ch
    52af:	66 0f 6e c9          	movd   %ecx,%xmm1
    52b3:	44 89 e1             	mov    %r12d,%ecx
    52b6:	f2 0f 70 c1 00       	pshuflw $0x0,%xmm1,%xmm0
    52bb:	83 e1 f8             	and    $0xfffffff8,%ecx
    52be:	66 41 0f d6 04 2b    	movq   %xmm0,(%r11,%rbp,1)
    52c4:	44 8b 5c 24 e0       	mov    -0x20(%rsp),%r11d
    52c9:	44 01 d9             	add    %r11d,%ecx
    52cc:	41 83 e4 07          	and    $0x7,%r12d
    52d0:	0f 84 5b ff ff ff    	je     5231 <_ZL26stbi__resample_row_genericPhS_S_ii+0xa1>
    52d6:	0f b6 28             	movzbl (%rax),%ebp
    52d9:	44 8d 1c 0e          	lea    (%rsi,%rcx,1),%r11d
    52dd:	4d 63 db             	movslq %r11d,%r11
    52e0:	43 88 2c 19          	mov    %bpl,(%r9,%r11,1)
    52e4:	44 8d 59 01          	lea    0x1(%rcx),%r11d
    52e8:	45 39 d8             	cmp    %r11d,%r8d
    52eb:	0f 8e 40 ff ff ff    	jle    5231 <_ZL26stbi__resample_row_genericPhS_S_ii+0xa1>
    52f1:	41 01 f3             	add    %esi,%r11d
    52f4:	4d 63 db             	movslq %r11d,%r11
    52f7:	43 88 2c 19          	mov    %bpl,(%r9,%r11,1)
    52fb:	44 8d 59 02          	lea    0x2(%rcx),%r11d
    52ff:	45 39 d8             	cmp    %r11d,%r8d
    5302:	0f 8e 29 ff ff ff    	jle    5231 <_ZL26stbi__resample_row_genericPhS_S_ii+0xa1>
    5308:	0f b6 28             	movzbl (%rax),%ebp
    530b:	41 01 f3             	add    %esi,%r11d
    530e:	4d 63 db             	movslq %r11d,%r11
    5311:	43 88 2c 19          	mov    %bpl,(%r9,%r11,1)
    5315:	44 8d 59 03          	lea    0x3(%rcx),%r11d
    5319:	45 39 d8             	cmp    %r11d,%r8d
    531c:	0f 8e 0f ff ff ff    	jle    5231 <_ZL26stbi__resample_row_genericPhS_S_ii+0xa1>
    5322:	41 01 f3             	add    %esi,%r11d
    5325:	4d 63 db             	movslq %r11d,%r11
    5328:	43 88 2c 19          	mov    %bpl,(%r9,%r11,1)
    532c:	44 8d 59 04          	lea    0x4(%rcx),%r11d
    5330:	45 39 d8             	cmp    %r11d,%r8d
    5333:	0f 8e f8 fe ff ff    	jle    5231 <_ZL26stbi__resample_row_genericPhS_S_ii+0xa1>
    5339:	0f b6 28             	movzbl (%rax),%ebp
    533c:	41 01 f3             	add    %esi,%r11d
    533f:	4d 63 db             	movslq %r11d,%r11
    5342:	43 88 2c 19          	mov    %bpl,(%r9,%r11,1)
    5346:	44 8d 59 05          	lea    0x5(%rcx),%r11d
    534a:	45 39 d8             	cmp    %r11d,%r8d
    534d:	0f 8e de fe ff ff    	jle    5231 <_ZL26stbi__resample_row_genericPhS_S_ii+0xa1>
    5353:	41 01 f3             	add    %esi,%r11d
    5356:	83 c1 06             	add    $0x6,%ecx
    5359:	4d 63 db             	movslq %r11d,%r11
    535c:	43 88 2c 19          	mov    %bpl,(%r9,%r11,1)
    5360:	41 39 c8             	cmp    %ecx,%r8d
    5363:	0f 8e c8 fe ff ff    	jle    5231 <_ZL26stbi__resample_row_genericPhS_S_ii+0xa1>
    5369:	0f b6 00             	movzbl (%rax),%eax
    536c:	01 f1                	add    %esi,%ecx
    536e:	48 63 c9             	movslq %ecx,%rcx
    5371:	41 88 04 09          	mov    %al,(%r9,%rcx,1)
    5375:	e9 b7 fe ff ff       	jmp    5231 <_ZL26stbi__resample_row_genericPhS_S_ii+0xa1>
    537a:	66 0f 1f 44 00 00    	nopw   0x0(%rax,%rax,1)
    5380:	48 89 f9             	mov    %rdi,%rcx
    5383:	4c 8d 50 01          	lea    0x1(%rax),%r10
    5387:	e9 94 fe ff ff       	jmp    5220 <_ZL26stbi__resample_row_genericPhS_S_ii+0x90>
    538c:	c7 44 24 e0 00 00 00 	movl   $0x0,-0x20(%rsp)
    5393:	00 
    5394:	45 89 c4             	mov    %r8d,%r12d
    5397:	31 ed                	xor    %ebp,%ebp
    5399:	e9 09 ff ff ff       	jmp    52a7 <_ZL26stbi__resample_row_genericPhS_S_ii+0x117>
    539e:	4c 89 c8             	mov    %r9,%rax
    53a1:	c3                   	ret    
    53a2:	66 66 2e 0f 1f 84 00 	data16 cs nopw 0x0(%rax,%rax,1)
    53a9:	00 00 00 00 
    53ad:	0f 1f 00             	nopl   (%rax)

00000000000053b0 <_ZL18stbi__out_gif_codeP9stbi__gift>:
    53b0:	55                   	push   %rbp
    53b1:	0f b7 ee             	movzwl %si,%ebp
    53b4:	53                   	push   %rbx
    53b5:	48 89 fb             	mov    %rdi,%rbx
    53b8:	48 83 ec 08          	sub    $0x8,%rsp
    53bc:	0f bf b4 af 34 08 00 	movswl 0x834(%rdi,%rbp,4),%esi
    53c3:	00 
    53c4:	66 85 f6             	test   %si,%si
    53c7:	78 05                	js     53ce <_ZL18stbi__out_gif_codeP9stbi__gift+0x1e>
    53c9:	e8 e2 ff ff ff       	call   53b0 <_ZL18stbi__out_gif_codeP9stbi__gift>
    53ce:	8b 93 60 88 00 00    	mov    0x8860(%rbx),%edx
    53d4:	3b 93 58 88 00 00    	cmp    0x8858(%rbx),%edx
    53da:	0f 8d d5 00 00 00    	jge    54b5 <_ZL18stbi__out_gif_codeP9stbi__gift+0x105>
    53e0:	03 93 5c 88 00 00    	add    0x885c(%rbx),%edx
    53e6:	48 8b 73 18          	mov    0x18(%rbx),%rsi
    53ea:	8d 42 03             	lea    0x3(%rdx),%eax
    53ed:	48 8b 4b 08          	mov    0x8(%rbx),%rcx
    53f1:	0f 49 c2             	cmovns %edx,%eax
    53f4:	c1 f8 02             	sar    $0x2,%eax
    53f7:	48 98                	cltq   
    53f9:	c6 04 06 01          	movb   $0x1,(%rsi,%rax,1)
    53fd:	0f b6 84 ab 37 08 00 	movzbl 0x837(%rbx,%rbp,4),%eax
    5404:	00 
    5405:	c1 e0 02             	shl    $0x2,%eax
    5408:	48 98                	cltq   
    540a:	48 03 83 38 88 00 00 	add    0x8838(%rbx),%rax
    5411:	80 78 03 80          	cmpb   $0x80,0x3(%rax)
    5415:	76 20                	jbe    5437 <_ZL18stbi__out_gif_codeP9stbi__gift+0x87>
    5417:	48 63 d2             	movslq %edx,%rdx
    541a:	48 01 ca             	add    %rcx,%rdx
    541d:	0f b6 48 02          	movzbl 0x2(%rax),%ecx
    5421:	88 0a                	mov    %cl,(%rdx)
    5423:	0f b6 48 01          	movzbl 0x1(%rax),%ecx
    5427:	88 4a 01             	mov    %cl,0x1(%rdx)
    542a:	0f b6 08             	movzbl (%rax),%ecx
    542d:	88 4a 02             	mov    %cl,0x2(%rdx)
    5430:	0f b6 40 03          	movzbl 0x3(%rax),%eax
    5434:	88 42 03             	mov    %al,0x3(%rdx)
    5437:	8b 83 5c 88 00 00    	mov    0x885c(%rbx),%eax
    543d:	83 c0 04             	add    $0x4,%eax
    5440:	89 83 5c 88 00 00    	mov    %eax,0x885c(%rbx)
    5446:	3b 83 54 88 00 00    	cmp    0x8854(%rbx),%eax
    544c:	7c 67                	jl     54b5 <_ZL18stbi__out_gif_codeP9stbi__gift+0x105>
    544e:	8b 83 44 88 00 00    	mov    0x8844(%rbx),%eax
    5454:	66 0f 6e 83 4c 88 00 	movd   0x884c(%rbx),%xmm0
    545b:	00 
    545c:	03 83 60 88 00 00    	add    0x8860(%rbx),%eax
    5462:	8b 93 58 88 00 00    	mov    0x8858(%rbx),%edx
    5468:	66 0f 6e c8          	movd   %eax,%xmm1
    546c:	66 0f 62 c1          	punpckldq %xmm1,%xmm0
    5470:	66 0f d6 83 5c 88 00 	movq   %xmm0,0x885c(%rbx)
    5477:	00 
    5478:	39 d0                	cmp    %edx,%eax
    547a:	7c 39                	jl     54b5 <_ZL18stbi__out_gif_codeP9stbi__gift+0x105>
    547c:	8b 8b 40 88 00 00    	mov    0x8840(%rbx),%ecx
    5482:	eb 2d                	jmp    54b1 <_ZL18stbi__out_gif_codeP9stbi__gift+0x101>
    5484:	0f 1f 40 00          	nopl   0x0(%rax)
    5488:	8b 83 64 88 00 00    	mov    0x8864(%rbx),%eax
    548e:	d3 e0                	shl    %cl,%eax
    5490:	83 e9 01             	sub    $0x1,%ecx
    5493:	89 83 44 88 00 00    	mov    %eax,0x8844(%rbx)
    5499:	d1 f8                	sar    %eax
    549b:	03 83 50 88 00 00    	add    0x8850(%rbx),%eax
    54a1:	89 83 60 88 00 00    	mov    %eax,0x8860(%rbx)
    54a7:	89 8b 40 88 00 00    	mov    %ecx,0x8840(%rbx)
    54ad:	39 d0                	cmp    %edx,%eax
    54af:	7c 04                	jl     54b5 <_ZL18stbi__out_gif_codeP9stbi__gift+0x105>
    54b1:	85 c9                	test   %ecx,%ecx
    54b3:	7f d3                	jg     5488 <_ZL18stbi__out_gif_codeP9stbi__gift+0xd8>
    54b5:	48 83 c4 08          	add    $0x8,%rsp
    54b9:	5b                   	pop    %rbx
    54ba:	5d                   	pop    %rbp
    54bb:	c3                   	ret    
    54bc:	0f 1f 40 00          	nopl   0x0(%rax)

00000000000054c0 <_ZL14stbiw__jpg_DCTPfS_S_S_S_S_S_S_>:
    54c0:	4c 8b 54 24 10       	mov    0x10(%rsp),%r10
    54c5:	f3 0f 10 0f          	movss  (%rdi),%xmm1
    54c9:	48 89 d0             	mov    %rdx,%rax
    54cc:	48 89 ca             	mov    %rcx,%rdx
    54cf:	48 8b 4c 24 08       	mov    0x8(%rsp),%rcx
    54d4:	f3 0f 10 1e          	movss  (%rsi),%xmm3
    54d8:	f3 41 0f 10 22       	movss  (%r10),%xmm4
    54dd:	f3 41 0f 10 10       	movss  (%r8),%xmm2
    54e2:	0f 28 e9             	movaps %xmm1,%xmm5
    54e5:	f3 41 0f 10 31       	movss  (%r9),%xmm6
    54ea:	f3 0f 10 39          	movss  (%rcx),%xmm7
    54ee:	f3 44 0f 10 00       	movss  (%rax),%xmm8
    54f3:	f3 0f 10 02          	movss  (%rdx),%xmm0
    54f7:	f3 0f 5c cc          	subss  %xmm4,%xmm1
    54fb:	f3 0f 58 ec          	addss  %xmm4,%xmm5
    54ff:	0f 28 e3             	movaps %xmm3,%xmm4
    5502:	f3 0f 5c df          	subss  %xmm7,%xmm3
    5506:	f3 0f 58 e7          	addss  %xmm7,%xmm4
    550a:	45 0f 28 c8          	movaps %xmm8,%xmm9
    550e:	0f 28 f8             	movaps %xmm0,%xmm7
    5511:	f3 44 0f 5c c6       	subss  %xmm6,%xmm8
    5516:	f3 0f 5c c2          	subss  %xmm2,%xmm0
    551a:	f3 0f 58 fa          	addss  %xmm2,%xmm7
    551e:	f3 44 0f 58 ce       	addss  %xmm6,%xmm9
    5523:	0f 28 d1             	movaps %xmm1,%xmm2
    5526:	f3 0f 58 d3          	addss  %xmm3,%xmm2
    552a:	0f 28 f5             	movaps %xmm5,%xmm6
    552d:	f3 41 0f 58 c0       	addss  %xmm8,%xmm0
    5532:	f3 41 0f 58 d8       	addss  %xmm8,%xmm3
    5537:	44 0f 28 c1          	movaps %xmm1,%xmm8
    553b:	f3 0f 5c ef          	subss  %xmm7,%xmm5
    553f:	f3 0f 58 f7          	addss  %xmm7,%xmm6
    5543:	0f 28 fc             	movaps %xmm4,%xmm7
    5546:	f3 41 0f 58 f9       	addss  %xmm9,%xmm7
    554b:	f3 41 0f 5c e1       	subss  %xmm9,%xmm4
    5550:	f3 44 0f 10 0d 07 0c 	movss  0x30c07(%rip),%xmm9        # 36160 <_ZL11stbi__bmask+0x440>
    5557:	03 00 
    5559:	44 0f 28 d0          	movaps %xmm0,%xmm10
    555d:	f3 44 0f 5c d2       	subss  %xmm2,%xmm10
    5562:	f3 0f 59 05 fe 0b 03 	mulss  0x30bfe(%rip),%xmm0        # 36168 <_ZL11stbi__bmask+0x448>
    5569:	00 
    556a:	f3 44 0f 59 15 f1 0b 	mulss  0x30bf1(%rip),%xmm10        # 36164 <_ZL11stbi__bmask+0x444>
    5571:	03 00 
    5573:	f3 0f 58 e5          	addss  %xmm5,%xmm4
    5577:	f3 41 0f 59 d9       	mulss  %xmm9,%xmm3
    557c:	f3 0f 59 15 e8 0b 03 	mulss  0x30be8(%rip),%xmm2        # 3616c <_ZL11stbi__bmask+0x44c>
    5583:	00 
    5584:	f3 41 0f 59 e1       	mulss  %xmm9,%xmm4
    5589:	f3 41 0f 58 c2       	addss  %xmm10,%xmm0
    558e:	f3 0f 5c cb          	subss  %xmm3,%xmm1
    5592:	f3 44 0f 58 c3       	addss  %xmm3,%xmm8
    5597:	f3 41 0f 58 d2       	addss  %xmm10,%xmm2
    559c:	0f 28 d8             	movaps %xmm0,%xmm3
    559f:	f3 0f 58 d9          	addss  %xmm1,%xmm3
    55a3:	f3 0f 5c c8          	subss  %xmm0,%xmm1
    55a7:	0f 28 c2             	movaps %xmm2,%xmm0
    55aa:	f3 41 0f 58 c0       	addss  %xmm8,%xmm0
    55af:	f3 44 0f 5c c2       	subss  %xmm2,%xmm8
    55b4:	f3 41 0f 11 19       	movss  %xmm3,(%r9)
    55b9:	f3 0f 11 0a          	movss  %xmm1,(%rdx)
    55bd:	f3 0f 11 06          	movss  %xmm0,(%rsi)
    55c1:	0f 28 c6             	movaps %xmm6,%xmm0
    55c4:	f3 0f 5c f7          	subss  %xmm7,%xmm6
    55c8:	f3 0f 58 c7          	addss  %xmm7,%xmm0
    55cc:	f3 45 0f 11 02       	movss  %xmm8,(%r10)
    55d1:	f3 0f 11 07          	movss  %xmm0,(%rdi)
    55d5:	0f 28 c5             	movaps %xmm5,%xmm0
    55d8:	f3 0f 5c ec          	subss  %xmm4,%xmm5
    55dc:	f3 0f 58 c4          	addss  %xmm4,%xmm0
    55e0:	f3 0f 11 00          	movss  %xmm0,(%rax)
    55e4:	f3 41 0f 11 30       	movss  %xmm6,(%r8)
    55e9:	f3 0f 11 29          	movss  %xmm5,(%rcx)
    55ed:	c3                   	ret    
    55ee:	66 90                	xchg   %ax,%ax

00000000000055f0 <_ZL15stbi__stdio_eofPv>:
    55f0:	53                   	push   %rbx
    55f1:	48 89 fb             	mov    %rdi,%rbx
    55f4:	e8 37 cc ff ff       	call   2230 <feof@plt>
    55f9:	89 c2                	mov    %eax,%edx
    55fb:	b8 01 00 00 00       	mov    $0x1,%eax
    5600:	85 d2                	test   %edx,%edx
    5602:	74 0c                	je     5610 <_ZL15stbi__stdio_eofPv+0x20>
    5604:	5b                   	pop    %rbx
    5605:	c3                   	ret    
    5606:	66 2e 0f 1f 84 00 00 	cs nopw 0x0(%rax,%rax,1)
    560d:	00 00 00 
    5610:	48 89 df             	mov    %rbx,%rdi
    5613:	e8 b8 cc ff ff       	call   22d0 <ferror@plt>
    5618:	5b                   	pop    %rbx
    5619:	85 c0                	test   %eax,%eax
    561b:	0f 95 c0             	setne  %al
    561e:	0f b6 c0             	movzbl %al,%eax
    5621:	c3                   	ret    
    5622:	66 66 2e 0f 1f 84 00 	data16 cs nopw 0x0(%rax,%rax,1)
    5629:	00 00 00 00 
    562d:	0f 1f 00             	nopl   (%rax)

0000000000005630 <_ZL16stbi__stdio_skipPvi>:
    5630:	53                   	push   %rbx
    5631:	48 63 f6             	movslq %esi,%rsi
    5634:	48 89 fb             	mov    %rdi,%rbx
    5637:	ba 01 00 00 00       	mov    $0x1,%edx
    563c:	e8 ff ca ff ff       	call   2140 <fseek@plt>
    5641:	48 89 df             	mov    %rbx,%rdi
    5644:	e8 07 cc ff ff       	call   2250 <fgetc@plt>
    5649:	83 f8 ff             	cmp    $0xffffffff,%eax
    564c:	75 02                	jne    5650 <_ZL16stbi__stdio_skipPvi+0x20>
    564e:	5b                   	pop    %rbx
    564f:	c3                   	ret    
    5650:	48 89 de             	mov    %rbx,%rsi
    5653:	89 c7                	mov    %eax,%edi
    5655:	5b                   	pop    %rbx
    5656:	e9 15 ca ff ff       	jmp    2070 <ungetc@plt>
    565b:	0f 1f 44 00 00       	nopl   0x0(%rax,%rax,1)

0000000000005660 <_ZL16stbi__stdio_readPvPci>:
    5660:	48 83 ec 08          	sub    $0x8,%rsp
    5664:	48 89 f9             	mov    %rdi,%rcx
    5667:	48 63 d2             	movslq %edx,%rdx
    566a:	48 89 f7             	mov    %rsi,%rdi
    566d:	be 01 00 00 00       	mov    $0x1,%esi
    5672:	e8 99 cb ff ff       	call   2210 <fread@plt>
    5677:	48 83 c4 08          	add    $0x8,%rsp
    567b:	c3                   	ret    
    567c:	0f 1f 40 00          	nopl   0x0(%rax)

0000000000005680 <_ZL14stbiw__writefvP19stbi__write_contextPKcP13__va_list_tag>:
    5680:	41 55                	push   %r13
    5682:	41 54                	push   %r12
    5684:	55                   	push   %rbp
    5685:	53                   	push   %rbx
    5686:	48 83 ec 18          	sub    $0x18,%rsp
    568a:	64 48 8b 04 25 28 00 	mov    %fs:0x28,%rax
    5691:	00 00 
    5693:	48 89 44 24 08       	mov    %rax,0x8(%rsp)
    5698:	31 c0                	xor    %eax,%eax
    569a:	0f b6 06             	movzbl (%rsi),%eax
    569d:	84 c0                	test   %al,%al
    569f:	0f 84 9f 00 00 00    	je     5744 <_ZL14stbiw__writefvP19stbi__write_contextPKcP13__va_list_tag+0xc4>
    56a5:	49 89 fc             	mov    %rdi,%r12
    56a8:	48 89 f3             	mov    %rsi,%rbx
    56ab:	4c 8d 6c 24 04       	lea    0x4(%rsp),%r13
    56b0:	48 89 d5             	mov    %rdx,%rbp
    56b3:	eb 47                	jmp    56fc <_ZL14stbiw__writefvP19stbi__write_contextPKcP13__va_list_tag+0x7c>
    56b5:	0f 1f 00             	nopl   (%rax)
    56b8:	3c 20                	cmp    $0x20,%al
    56ba:	74 39                	je     56f5 <_ZL14stbiw__writefvP19stbi__write_contextPKcP13__va_list_tag+0x75>
    56bc:	3c 31                	cmp    $0x31,%al
    56be:	0f 85 1d 01 00 00    	jne    57e1 <_ZL14stbiw__writefvP19stbi__write_contextPKcP13__va_list_tag+0x161>
    56c4:	8b 45 00             	mov    0x0(%rbp),%eax
    56c7:	83 f8 2f             	cmp    $0x2f,%eax
    56ca:	0f 87 00 01 00 00    	ja     57d0 <_ZL14stbiw__writefvP19stbi__write_contextPKcP13__va_list_tag+0x150>
    56d0:	89 c2                	mov    %eax,%edx
    56d2:	83 c0 08             	add    $0x8,%eax
    56d5:	48 03 55 10          	add    0x10(%rbp),%rdx
    56d9:	89 45 00             	mov    %eax,0x0(%rbp)
    56dc:	8b 02                	mov    (%rdx),%eax
    56de:	49 8b 7c 24 08       	mov    0x8(%r12),%rdi
    56e3:	48 8d 74 24 03       	lea    0x3(%rsp),%rsi
    56e8:	ba 01 00 00 00       	mov    $0x1,%edx
    56ed:	88 44 24 03          	mov    %al,0x3(%rsp)
    56f1:	41 ff 14 24          	call   *(%r12)
    56f5:	0f b6 03             	movzbl (%rbx),%eax
    56f8:	84 c0                	test   %al,%al
    56fa:	74 48                	je     5744 <_ZL14stbiw__writefvP19stbi__write_contextPKcP13__va_list_tag+0xc4>
    56fc:	48 83 c3 01          	add    $0x1,%rbx
    5700:	3c 32                	cmp    $0x32,%al
    5702:	74 64                	je     5768 <_ZL14stbiw__writefvP19stbi__write_contextPKcP13__va_list_tag+0xe8>
    5704:	7e b2                	jle    56b8 <_ZL14stbiw__writefvP19stbi__write_contextPKcP13__va_list_tag+0x38>
    5706:	3c 34                	cmp    $0x34,%al
    5708:	0f 85 d3 00 00 00    	jne    57e1 <_ZL14stbiw__writefvP19stbi__write_contextPKcP13__va_list_tag+0x161>
    570e:	8b 45 00             	mov    0x0(%rbp),%eax
    5711:	83 f8 2f             	cmp    $0x2f,%eax
    5714:	0f 87 86 00 00 00    	ja     57a0 <_ZL14stbiw__writefvP19stbi__write_contextPKcP13__va_list_tag+0x120>
    571a:	89 c2                	mov    %eax,%edx
    571c:	83 c0 08             	add    $0x8,%eax
    571f:	48 03 55 10          	add    0x10(%rbp),%rdx
    5723:	89 45 00             	mov    %eax,0x0(%rbp)
    5726:	8b 02                	mov    (%rdx),%eax
    5728:	49 8b 7c 24 08       	mov    0x8(%r12),%rdi
    572d:	ba 04 00 00 00       	mov    $0x4,%edx
    5732:	4c 89 ee             	mov    %r13,%rsi
    5735:	89 44 24 04          	mov    %eax,0x4(%rsp)
    5739:	41 ff 14 24          	call   *(%r12)
    573d:	0f b6 03             	movzbl (%rbx),%eax
    5740:	84 c0                	test   %al,%al
    5742:	75 b8                	jne    56fc <_ZL14stbiw__writefvP19stbi__write_contextPKcP13__va_list_tag+0x7c>
    5744:	48 8b 44 24 08       	mov    0x8(%rsp),%rax
    5749:	64 48 2b 04 25 28 00 	sub    %fs:0x28,%rax
    5750:	00 00 
    5752:	0f 85 a8 00 00 00    	jne    5800 <_ZL14stbiw__writefvP19stbi__write_contextPKcP13__va_list_tag+0x180>
    5758:	48 83 c4 18          	add    $0x18,%rsp
    575c:	5b                   	pop    %rbx
    575d:	5d                   	pop    %rbp
    575e:	41 5c                	pop    %r12
    5760:	41 5d                	pop    %r13
    5762:	c3                   	ret    
    5763:	0f 1f 44 00 00       	nopl   0x0(%rax,%rax,1)
    5768:	8b 45 00             	mov    0x0(%rbp),%eax
    576b:	83 f8 2f             	cmp    $0x2f,%eax
    576e:	77 48                	ja     57b8 <_ZL14stbiw__writefvP19stbi__write_contextPKcP13__va_list_tag+0x138>
    5770:	89 c2                	mov    %eax,%edx
    5772:	83 c0 08             	add    $0x8,%eax
    5775:	48 03 55 10          	add    0x10(%rbp),%rdx
    5779:	89 45 00             	mov    %eax,0x0(%rbp)
    577c:	0f b7 02             	movzwl (%rdx),%eax
    577f:	49 8b 7c 24 08       	mov    0x8(%r12),%rdi
    5784:	ba 02 00 00 00       	mov    $0x2,%edx
    5789:	4c 89 ee             	mov    %r13,%rsi
    578c:	66 89 44 24 04       	mov    %ax,0x4(%rsp)
    5791:	41 ff 14 24          	call   *(%r12)
    5795:	e9 5b ff ff ff       	jmp    56f5 <_ZL14stbiw__writefvP19stbi__write_contextPKcP13__va_list_tag+0x75>
    579a:	66 0f 1f 44 00 00    	nopw   0x0(%rax,%rax,1)
    57a0:	48 8b 55 08          	mov    0x8(%rbp),%rdx
    57a4:	48 8d 42 08          	lea    0x8(%rdx),%rax
    57a8:	48 89 45 08          	mov    %rax,0x8(%rbp)
    57ac:	e9 75 ff ff ff       	jmp    5726 <_ZL14stbiw__writefvP19stbi__write_contextPKcP13__va_list_tag+0xa6>
    57b1:	0f 1f 80 00 00 00 00 	nopl   0x0(%rax)
    57b8:	48 8b 55 08          	mov    0x8(%rbp),%rdx
    57bc:	48 8d 42 08          	lea    0x8(%rdx),%rax
    57c0:	48 89 45 08          	mov    %rax,0x8(%rbp)
    57c4:	eb b6                	jmp    577c <_ZL14stbiw__writefvP19stbi__write_contextPKcP13__va_list_tag+0xfc>
    57c6:	66 2e 0f 1f 84 00 00 	cs nopw 0x0(%rax,%rax,1)
    57cd:	00 00 00 
    57d0:	48 8b 55 08          	mov    0x8(%rbp),%rdx
    57d4:	48 8d 42 08          	lea    0x8(%rdx),%rax
    57d8:	48 89 45 08          	mov    %rax,0x8(%rbp)
    57dc:	e9 fb fe ff ff       	jmp    56dc <_ZL14stbiw__writefvP19stbi__write_contextPKcP13__va_list_tag+0x5c>
    57e1:	48 8d 0d 20 d8 02 00 	lea    0x2d820(%rip),%rcx        # 33008 <_IO_stdin_used+0x8>
    57e8:	ba 74 01 00 00       	mov    $0x174,%edx
    57ed:	48 8d 35 5c d8 02 00 	lea    0x2d85c(%rip),%rsi        # 33050 <_IO_stdin_used+0x50>
    57f4:	48 8d 3d 97 de 02 00 	lea    0x2de97(%rip),%rdi        # 33692 <_IO_stdin_used+0x692>
    57fb:	e8 d0 c8 ff ff       	call   20d0 <__assert_fail@plt>
    5800:	e8 4b c9 ff ff       	call   2150 <__stack_chk_fail@plt>
    5805:	66 66 2e 0f 1f 84 00 	data16 cs nopw 0x0(%rax,%rax,1)
    580c:	00 00 00 00 

0000000000005810 <_ZL19stbi__build_huffmanP13stbi__huffmanPi>:
    5810:	53                   	push   %rbx
    5811:	49 89 f8             	mov    %rdi,%r8
    5814:	41 ba 01 00 00 00    	mov    $0x1,%r10d
    581a:	31 c9                	xor    %ecx,%ecx
    581c:	0f 1f 40 00          	nopl   0x0(%rax)
    5820:	8b 16                	mov    (%rsi),%edx
    5822:	8d 41 01             	lea    0x1(%rcx),%eax
    5825:	44 89 d7             	mov    %r10d,%edi
    5828:	48 98                	cltq   
    582a:	85 d2                	test   %edx,%edx
    582c:	7e 1f                	jle    584d <_ZL19stbi__build_huffmanP13stbi__huffmanPi+0x3d>
    582e:	66 90                	xchg   %ax,%ax
    5830:	41 88 bc 00 ff 04 00 	mov    %dil,0x4ff(%r8,%rax,1)
    5837:	00 
    5838:	49 89 c1             	mov    %rax,%r9
    583b:	48 83 c0 01          	add    $0x1,%rax
    583f:	89 c2                	mov    %eax,%edx
    5841:	29 ca                	sub    %ecx,%edx
    5843:	83 ea 01             	sub    $0x1,%edx
    5846:	39 16                	cmp    %edx,(%rsi)
    5848:	7f e6                	jg     5830 <_ZL19stbi__build_huffmanP13stbi__huffmanPi+0x20>
    584a:	49 63 c9             	movslq %r9d,%rcx
    584d:	49 83 c2 01          	add    $0x1,%r10
    5851:	48 83 c6 04          	add    $0x4,%rsi
    5855:	49 83 fa 11          	cmp    $0x11,%r10
    5859:	75 c5                	jne    5820 <_ZL19stbi__build_huffmanP13stbi__huffmanPi+0x10>
    585b:	ba 01 00 00 00       	mov    $0x1,%edx
    5860:	31 c0                	xor    %eax,%eax
    5862:	31 f6                	xor    %esi,%esi
    5864:	41 bb 10 00 00 00    	mov    $0x10,%r11d
    586a:	41 c6 84 08 00 05 00 	movb   $0x0,0x500(%r8,%rcx,1)
    5871:	00 00 
    5873:	eb 21                	jmp    5896 <_ZL19stbi__build_huffmanP13stbi__huffmanPi+0x86>
    5875:	0f 1f 00             	nopl   (%rax)
    5878:	44 89 d9             	mov    %r11d,%ecx
    587b:	89 c3                	mov    %eax,%ebx
    587d:	01 c0                	add    %eax,%eax
    587f:	44 29 d1             	sub    %r10d,%ecx
    5882:	d3 e3                	shl    %cl,%ebx
    5884:	41 89 9c 90 04 06 00 	mov    %ebx,0x604(%r8,%rdx,4)
    588b:	00 
    588c:	48 83 c2 01          	add    $0x1,%rdx
    5890:	48 83 fa 11          	cmp    $0x11,%rdx
    5894:	74 6c                	je     5902 <_ZL19stbi__build_huffmanP13stbi__huffmanPi+0xf2>
    5896:	89 f1                	mov    %esi,%ecx
    5898:	41 89 d2             	mov    %edx,%r10d
    589b:	41 89 d1             	mov    %edx,%r9d
    589e:	29 c1                	sub    %eax,%ecx
    58a0:	41 89 8c 90 4c 06 00 	mov    %ecx,0x64c(%r8,%rdx,4)
    58a7:	00 
    58a8:	48 63 ce             	movslq %esi,%rcx
    58ab:	41 0f b6 8c 08 00 05 	movzbl 0x500(%r8,%rcx,1),%ecx
    58b2:	00 00 
    58b4:	39 ca                	cmp    %ecx,%edx
    58b6:	75 c0                	jne    5878 <_ZL19stbi__build_huffmanP13stbi__huffmanPi+0x68>
    58b8:	8d 4e 01             	lea    0x1(%rsi),%ecx
    58bb:	48 63 c9             	movslq %ecx,%rcx
    58be:	66 90                	xchg   %ax,%ax
    58c0:	89 c3                	mov    %eax,%ebx
    58c2:	83 c0 01             	add    $0x1,%eax
    58c5:	8d 70 ff             	lea    -0x1(%rax),%esi
    58c8:	66 41 89 b4 48 fe 01 	mov    %si,0x1fe(%r8,%rcx,2)
    58cf:	00 00 
    58d1:	48 89 ce             	mov    %rcx,%rsi
    58d4:	41 0f b6 bc 08 00 05 	movzbl 0x500(%r8,%rcx,1),%edi
    58db:	00 00 
    58dd:	48 83 c1 01          	add    $0x1,%rcx
    58e1:	41 39 f9             	cmp    %edi,%r9d
    58e4:	74 da                	je     58c0 <_ZL19stbi__build_huffmanP13stbi__huffmanPi+0xb0>
    58e6:	89 d1                	mov    %edx,%ecx
    58e8:	d3 eb                	shr    %cl,%ebx
    58ea:	85 db                	test   %ebx,%ebx
    58ec:	74 8a                	je     5878 <_ZL19stbi__build_huffmanP13stbi__huffmanPi+0x68>
    58ee:	48 8d 05 9f dd 02 00 	lea    0x2dd9f(%rip),%rax        # 33694 <_IO_stdin_used+0x694>
    58f5:	64 48 89 04 25 f8 ff 	mov    %rax,%fs:0xfffffffffffffff8
    58fc:	ff ff 
    58fe:	31 c0                	xor    %eax,%eax
    5900:	5b                   	pop    %rbx
    5901:	c3                   	ret    
    5902:	49 8d 78 08          	lea    0x8(%r8),%rdi
    5906:	4c 89 c1             	mov    %r8,%rcx
    5909:	48 c7 c0 ff ff ff ff 	mov    $0xffffffffffffffff,%rax
    5910:	31 d2                	xor    %edx,%edx
    5912:	48 83 e7 f8          	and    $0xfffffffffffffff8,%rdi
    5916:	4c 63 ce             	movslq %esi,%r9
    5919:	41 c7 80 48 06 00 00 	movl   $0xffffffff,0x648(%r8)
    5920:	ff ff ff ff 
    5924:	bb 09 00 00 00       	mov    $0x9,%ebx
    5929:	48 29 f9             	sub    %rdi,%rcx
    592c:	49 c7 00 ff ff ff ff 	movq   $0xffffffffffffffff,(%r8)
    5933:	41 bb 01 00 00 00    	mov    $0x1,%r11d
    5939:	49 ba 01 01 01 01 01 	movabs $0x101010101010101,%r10
    5940:	01 01 01 
    5943:	81 c1 00 02 00 00    	add    $0x200,%ecx
    5949:	49 c7 80 f8 01 00 00 	movq   $0xffffffffffffffff,0x1f8(%r8)
    5950:	ff ff ff ff 
    5954:	c1 e9 03             	shr    $0x3,%ecx
    5957:	f3 48 ab             	rep stos %rax,%es:(%rdi)
    595a:	85 f6                	test   %esi,%esi
    595c:	75 13                	jne    5971 <_ZL19stbi__build_huffmanP13stbi__huffmanPi+0x161>
    595e:	e9 85 00 00 00       	jmp    59e8 <_ZL19stbi__build_huffmanP13stbi__huffmanPi+0x1d8>
    5963:	0f 1f 44 00 00       	nopl   0x0(%rax,%rax,1)
    5968:	48 83 c2 01          	add    $0x1,%rdx
    596c:	49 39 d1             	cmp    %rdx,%r9
    596f:	74 77                	je     59e8 <_ZL19stbi__build_huffmanP13stbi__huffmanPi+0x1d8>
    5971:	41 0f b6 84 10 00 05 	movzbl 0x500(%r8,%rdx,1),%eax
    5978:	00 00 
    597a:	83 f8 09             	cmp    $0x9,%eax
    597d:	7f e9                	jg     5968 <_ZL19stbi__build_huffmanP13stbi__huffmanPi+0x158>
    597f:	89 d9                	mov    %ebx,%ecx
    5981:	44 89 de             	mov    %r11d,%esi
    5984:	29 c1                	sub    %eax,%ecx
    5986:	41 0f b7 84 50 00 02 	movzwl 0x200(%r8,%rdx,2),%eax
    598d:	00 00 
    598f:	d3 e6                	shl    %cl,%esi
    5991:	d3 e0                	shl    %cl,%eax
    5993:	48 63 c8             	movslq %eax,%rcx
    5996:	0f b6 c2             	movzbl %dl,%eax
    5999:	49 0f af c2          	imul   %r10,%rax
    599d:	4c 01 c1             	add    %r8,%rcx
    59a0:	83 fe 08             	cmp    $0x8,%esi
    59a3:	73 1b                	jae    59c0 <_ZL19stbi__build_huffmanP13stbi__huffmanPi+0x1b0>
    59a5:	40 f6 c6 04          	test   $0x4,%sil
    59a9:	75 44                	jne    59ef <_ZL19stbi__build_huffmanP13stbi__huffmanPi+0x1df>
    59ab:	85 f6                	test   %esi,%esi
    59ad:	74 b9                	je     5968 <_ZL19stbi__build_huffmanP13stbi__huffmanPi+0x158>
    59af:	88 01                	mov    %al,(%rcx)
    59b1:	40 f6 c6 02          	test   $0x2,%sil
    59b5:	74 b1                	je     5968 <_ZL19stbi__build_huffmanP13stbi__huffmanPi+0x158>
    59b7:	66 89 44 31 fe       	mov    %ax,-0x2(%rcx,%rsi,1)
    59bc:	eb aa                	jmp    5968 <_ZL19stbi__build_huffmanP13stbi__huffmanPi+0x158>
    59be:	66 90                	xchg   %ax,%ax
    59c0:	89 f7                	mov    %esi,%edi
    59c2:	48 89 01             	mov    %rax,(%rcx)
    59c5:	48 83 c2 01          	add    $0x1,%rdx
    59c9:	48 89 44 39 f8       	mov    %rax,-0x8(%rcx,%rdi,1)
    59ce:	48 8d 79 08          	lea    0x8(%rcx),%rdi
    59d2:	48 83 e7 f8          	and    $0xfffffffffffffff8,%rdi
    59d6:	48 29 f9             	sub    %rdi,%rcx
    59d9:	01 ce                	add    %ecx,%esi
    59db:	c1 ee 03             	shr    $0x3,%esi
    59de:	89 f1                	mov    %esi,%ecx
    59e0:	f3 48 ab             	rep stos %rax,%es:(%rdi)
    59e3:	49 39 d1             	cmp    %rdx,%r9
    59e6:	75 89                	jne    5971 <_ZL19stbi__build_huffmanP13stbi__huffmanPi+0x161>
    59e8:	b8 01 00 00 00       	mov    $0x1,%eax
    59ed:	5b                   	pop    %rbx
    59ee:	c3                   	ret    
    59ef:	89 01                	mov    %eax,(%rcx)
    59f1:	89 44 31 fc          	mov    %eax,-0x4(%rcx,%rsi,1)
    59f5:	e9 6e ff ff ff       	jmp    5968 <_ZL19stbi__build_huffmanP13stbi__huffmanPi+0x158>
    59fa:	66 0f 1f 44 00 00    	nopw   0x0(%rax,%rax,1)

0000000000005a00 <_ZL10stbi__getnP13stbi__contextPhi>:
    5a00:	41 55                	push   %r13
    5a02:	41 54                	push   %r12
    5a04:	55                   	push   %rbp
    5a05:	48 89 fd             	mov    %rdi,%rbp
    5a08:	48 89 f7             	mov    %rsi,%rdi
    5a0b:	53                   	push   %rbx
    5a0c:	48 63 da             	movslq %edx,%rbx
    5a0f:	48 83 ec 08          	sub    $0x8,%rsp
    5a13:	48 83 7d 10 00       	cmpq   $0x0,0x10(%rbp)
    5a18:	48 8b 85 c8 00 00 00 	mov    0xc8(%rbp),%rax
    5a1f:	48 8b b5 c0 00 00 00 	mov    0xc0(%rbp),%rsi
    5a26:	74 0b                	je     5a33 <_ZL10stbi__getnP13stbi__contextPhi+0x33>
    5a28:	49 89 c4             	mov    %rax,%r12
    5a2b:	49 29 f4             	sub    %rsi,%r12
    5a2e:	41 39 dc             	cmp    %ebx,%r12d
    5a31:	7c 45                	jl     5a78 <_ZL10stbi__getnP13stbi__contextPhi+0x78>
    5a33:	48 8d 0c 1e          	lea    (%rsi,%rbx,1),%rcx
    5a37:	31 d2                	xor    %edx,%edx
    5a39:	48 39 c8             	cmp    %rcx,%rax
    5a3c:	73 12                	jae    5a50 <_ZL10stbi__getnP13stbi__contextPhi+0x50>
    5a3e:	48 83 c4 08          	add    $0x8,%rsp
    5a42:	89 d0                	mov    %edx,%eax
    5a44:	5b                   	pop    %rbx
    5a45:	5d                   	pop    %rbp
    5a46:	41 5c                	pop    %r12
    5a48:	41 5d                	pop    %r13
    5a4a:	c3                   	ret    
    5a4b:	0f 1f 44 00 00       	nopl   0x0(%rax,%rax,1)
    5a50:	48 89 da             	mov    %rbx,%rdx
    5a53:	e8 a8 c6 ff ff       	call   2100 <memcpy@plt>
    5a58:	48 01 9d c0 00 00 00 	add    %rbx,0xc0(%rbp)
    5a5f:	ba 01 00 00 00       	mov    $0x1,%edx
    5a64:	48 83 c4 08          	add    $0x8,%rsp
    5a68:	5b                   	pop    %rbx
    5a69:	89 d0                	mov    %edx,%eax
    5a6b:	5d                   	pop    %rbp
    5a6c:	41 5c                	pop    %r12
    5a6e:	41 5d                	pop    %r13
    5a70:	c3                   	ret    
    5a71:	0f 1f 80 00 00 00 00 	nopl   0x0(%rax)
    5a78:	4d 63 ec             	movslq %r12d,%r13
    5a7b:	44 29 e3             	sub    %r12d,%ebx
    5a7e:	4c 89 ea             	mov    %r13,%rdx
    5a81:	e8 7a c6 ff ff       	call   2100 <memcpy@plt>
    5a86:	89 da                	mov    %ebx,%edx
    5a88:	48 8b 7d 28          	mov    0x28(%rbp),%rdi
    5a8c:	4a 8d 34 28          	lea    (%rax,%r13,1),%rsi
    5a90:	ff 55 10             	call   *0x10(%rbp)
    5a93:	31 d2                	xor    %edx,%edx
    5a95:	39 c3                	cmp    %eax,%ebx
    5a97:	48 8b 85 c8 00 00 00 	mov    0xc8(%rbp),%rax
    5a9e:	0f 94 c2             	sete   %dl
    5aa1:	48 89 85 c0 00 00 00 	mov    %rax,0xc0(%rbp)
    5aa8:	48 83 c4 08          	add    $0x8,%rsp
    5aac:	89 d0                	mov    %edx,%eax
    5aae:	5b                   	pop    %rbx
    5aaf:	5d                   	pop    %rbp
    5ab0:	41 5c                	pop    %r12
    5ab2:	41 5d                	pop    %r13
    5ab4:	c3                   	ret    
    5ab5:	66 66 2e 0f 1f 84 00 	data16 cs nopw 0x0(%rax,%rax,1)
    5abc:	00 00 00 00 

0000000000005ac0 <_ZL19stbi__vertical_flipPviii>:
    5ac0:	41 56                	push   %r14
    5ac2:	48 63 c9             	movslq %ecx,%rcx
    5ac5:	41 55                	push   %r13
    5ac7:	41 89 d5             	mov    %edx,%r13d
    5aca:	41 54                	push   %r12
    5acc:	41 d1 fd             	sar    %r13d
    5acf:	55                   	push   %rbp
    5ad0:	53                   	push   %rbx
    5ad1:	48 63 de             	movslq %esi,%rbx
    5ad4:	48 0f af d9          	imul   %rcx,%rbx
    5ad8:	48 81 ec 10 08 00 00 	sub    $0x810,%rsp
    5adf:	64 48 8b 04 25 28 00 	mov    %fs:0x28,%rax
    5ae6:	00 00 
    5ae8:	48 89 84 24 08 08 00 	mov    %rax,0x808(%rsp)
    5aef:	00 
    5af0:	31 c0                	xor    %eax,%eax
    5af2:	45 85 ed             	test   %r13d,%r13d
    5af5:	0f 8e 26 01 00 00    	jle    5c21 <_ZL19stbi__vertical_flipPviii+0x161>
    5afb:	48 85 db             	test   %rbx,%rbx
    5afe:	0f 84 1d 01 00 00    	je     5c21 <_ZL19stbi__vertical_flipPviii+0x161>
    5b04:	4c 63 da             	movslq %edx,%r11
    5b07:	48 89 fd             	mov    %rdi,%rbp
    5b0a:	45 31 e4             	xor    %r12d,%r12d
    5b0d:	49 89 e2             	mov    %rsp,%r10
    5b10:	49 83 eb 01          	sub    $0x1,%r11
    5b14:	4c 0f af db          	imul   %rbx,%r11
    5b18:	49 01 fb             	add    %rdi,%r11
    5b1b:	0f 1f 44 00 00       	nopl   0x0(%rax,%rax,1)
    5b20:	49 89 e8             	mov    %rbp,%r8
    5b23:	4c 89 da             	mov    %r11,%rdx
    5b26:	49 89 d9             	mov    %rbx,%r9
    5b29:	eb 2e                	jmp    5b59 <_ZL19stbi__vertical_flipPviii+0x99>
    5b2b:	0f 1f 44 00 00       	nopl   0x0(%rax,%rax,1)
    5b30:	a8 04                	test   $0x4,%al
    5b32:	0f 85 50 01 00 00    	jne    5c88 <_ZL19stbi__vertical_flipPviii+0x1c8>
    5b38:	85 c0                	test   %eax,%eax
    5b3a:	74 0e                	je     5b4a <_ZL19stbi__vertical_flipPviii+0x8a>
    5b3c:	41 0f b6 0a          	movzbl (%r10),%ecx
    5b40:	88 0a                	mov    %cl,(%rdx)
    5b42:	a8 02                	test   $0x2,%al
    5b44:	0f 85 6e 01 00 00    	jne    5cb8 <_ZL19stbi__vertical_flipPviii+0x1f8>
    5b4a:	49 01 c0             	add    %rax,%r8
    5b4d:	48 01 c2             	add    %rax,%rdx
    5b50:	49 29 c1             	sub    %rax,%r9
    5b53:	0f 84 b5 00 00 00    	je     5c0e <_ZL19stbi__vertical_flipPviii+0x14e>
    5b59:	b8 00 08 00 00       	mov    $0x800,%eax
    5b5e:	4c 89 d7             	mov    %r10,%rdi
    5b61:	4c 89 c6             	mov    %r8,%rsi
    5b64:	49 39 c1             	cmp    %rax,%r9
    5b67:	49 0f 46 c1          	cmovbe %r9,%rax
    5b6b:	83 f8 08             	cmp    $0x8,%eax
    5b6e:	72 08                	jb     5b78 <_ZL19stbi__vertical_flipPviii+0xb8>
    5b70:	89 c1                	mov    %eax,%ecx
    5b72:	c1 e9 03             	shr    $0x3,%ecx
    5b75:	f3 48 a5             	rep movsq %ds:(%rsi),%es:(%rdi)
    5b78:	31 c9                	xor    %ecx,%ecx
    5b7a:	a8 04                	test   $0x4,%al
    5b7c:	74 09                	je     5b87 <_ZL19stbi__vertical_flipPviii+0xc7>
    5b7e:	8b 0e                	mov    (%rsi),%ecx
    5b80:	89 0f                	mov    %ecx,(%rdi)
    5b82:	b9 04 00 00 00       	mov    $0x4,%ecx
    5b87:	a8 02                	test   $0x2,%al
    5b89:	74 0e                	je     5b99 <_ZL19stbi__vertical_flipPviii+0xd9>
    5b8b:	44 0f b7 34 0e       	movzwl (%rsi,%rcx,1),%r14d
    5b90:	66 44 89 34 0f       	mov    %r14w,(%rdi,%rcx,1)
    5b95:	48 83 c1 02          	add    $0x2,%rcx
    5b99:	a8 01                	test   $0x1,%al
    5b9b:	74 08                	je     5ba5 <_ZL19stbi__vertical_flipPviii+0xe5>
    5b9d:	0f b6 34 0e          	movzbl (%rsi,%rcx,1),%esi
    5ba1:	40 88 34 0f          	mov    %sil,(%rdi,%rcx,1)
    5ba5:	83 f8 08             	cmp    $0x8,%eax
    5ba8:	0f 83 a2 00 00 00    	jae    5c50 <_ZL19stbi__vertical_flipPviii+0x190>
    5bae:	a8 04                	test   $0x4,%al
    5bb0:	0f 85 ea 00 00 00    	jne    5ca0 <_ZL19stbi__vertical_flipPviii+0x1e0>
    5bb6:	85 c0                	test   %eax,%eax
    5bb8:	74 0e                	je     5bc8 <_ZL19stbi__vertical_flipPviii+0x108>
    5bba:	0f b6 0a             	movzbl (%rdx),%ecx
    5bbd:	41 88 08             	mov    %cl,(%r8)
    5bc0:	a8 02                	test   $0x2,%al
    5bc2:	0f 85 08 01 00 00    	jne    5cd0 <_ZL19stbi__vertical_flipPviii+0x210>
    5bc8:	83 f8 08             	cmp    $0x8,%eax
    5bcb:	0f 82 5f ff ff ff    	jb     5b30 <_ZL19stbi__vertical_flipPviii+0x70>
    5bd1:	49 8b 0a             	mov    (%r10),%rcx
    5bd4:	48 8d 7a 08          	lea    0x8(%rdx),%rdi
    5bd8:	49 01 c0             	add    %rax,%r8
    5bdb:	48 83 e7 f8          	and    $0xfffffffffffffff8,%rdi
    5bdf:	48 89 0a             	mov    %rcx,(%rdx)
    5be2:	89 c1                	mov    %eax,%ecx
    5be4:	49 8b 74 0a f8       	mov    -0x8(%r10,%rcx,1),%rsi
    5be9:	48 89 74 0a f8       	mov    %rsi,-0x8(%rdx,%rcx,1)
    5bee:	48 89 d1             	mov    %rdx,%rcx
    5bf1:	4c 89 d6             	mov    %r10,%rsi
    5bf4:	48 01 c2             	add    %rax,%rdx
    5bf7:	48 29 f9             	sub    %rdi,%rcx
    5bfa:	48 29 ce             	sub    %rcx,%rsi
    5bfd:	01 c1                	add    %eax,%ecx
    5bff:	c1 e9 03             	shr    $0x3,%ecx
    5c02:	f3 48 a5             	rep movsq %ds:(%rsi),%es:(%rdi)
    5c05:	49 29 c1             	sub    %rax,%r9
    5c08:	0f 85 4b ff ff ff    	jne    5b59 <_ZL19stbi__vertical_flipPviii+0x99>
    5c0e:	41 83 c4 01          	add    $0x1,%r12d
    5c12:	48 01 dd             	add    %rbx,%rbp
    5c15:	49 29 db             	sub    %rbx,%r11
    5c18:	45 39 ec             	cmp    %r13d,%r12d
    5c1b:	0f 85 ff fe ff ff    	jne    5b20 <_ZL19stbi__vertical_flipPviii+0x60>
    5c21:	48 8b 84 24 08 08 00 	mov    0x808(%rsp),%rax
    5c28:	00 
    5c29:	64 48 2b 04 25 28 00 	sub    %fs:0x28,%rax
    5c30:	00 00 
    5c32:	0f 85 aa 00 00 00    	jne    5ce2 <_ZL19stbi__vertical_flipPviii+0x222>
    5c38:	48 81 c4 10 08 00 00 	add    $0x810,%rsp
    5c3f:	5b                   	pop    %rbx
    5c40:	5d                   	pop    %rbp
    5c41:	41 5c                	pop    %r12
    5c43:	41 5d                	pop    %r13
    5c45:	41 5e                	pop    %r14
    5c47:	c3                   	ret    
    5c48:	0f 1f 84 00 00 00 00 	nopl   0x0(%rax,%rax,1)
    5c4f:	00 
    5c50:	48 8b 0a             	mov    (%rdx),%rcx
    5c53:	49 8d 78 08          	lea    0x8(%r8),%rdi
    5c57:	48 83 e7 f8          	and    $0xfffffffffffffff8,%rdi
    5c5b:	49 89 08             	mov    %rcx,(%r8)
    5c5e:	89 c1                	mov    %eax,%ecx
    5c60:	48 8b 74 0a f8       	mov    -0x8(%rdx,%rcx,1),%rsi
    5c65:	49 89 74 08 f8       	mov    %rsi,-0x8(%r8,%rcx,1)
    5c6a:	4c 89 c1             	mov    %r8,%rcx
    5c6d:	48 89 d6             	mov    %rdx,%rsi
    5c70:	48 29 f9             	sub    %rdi,%rcx
    5c73:	48 29 ce             	sub    %rcx,%rsi
    5c76:	01 c1                	add    %eax,%ecx
    5c78:	c1 e9 03             	shr    $0x3,%ecx
    5c7b:	f3 48 a5             	rep movsq %ds:(%rsi),%es:(%rdi)
    5c7e:	e9 45 ff ff ff       	jmp    5bc8 <_ZL19stbi__vertical_flipPviii+0x108>
    5c83:	0f 1f 44 00 00       	nopl   0x0(%rax,%rax,1)
    5c88:	41 8b 0a             	mov    (%r10),%ecx
    5c8b:	89 0a                	mov    %ecx,(%rdx)
    5c8d:	89 c1                	mov    %eax,%ecx
    5c8f:	41 8b 74 0a fc       	mov    -0x4(%r10,%rcx,1),%esi
    5c94:	89 74 0a fc          	mov    %esi,-0x4(%rdx,%rcx,1)
    5c98:	e9 ad fe ff ff       	jmp    5b4a <_ZL19stbi__vertical_flipPviii+0x8a>
    5c9d:	0f 1f 00             	nopl   (%rax)
    5ca0:	8b 0a                	mov    (%rdx),%ecx
    5ca2:	41 89 08             	mov    %ecx,(%r8)
    5ca5:	89 c1                	mov    %eax,%ecx
    5ca7:	8b 74 0a fc          	mov    -0x4(%rdx,%rcx,1),%esi
    5cab:	41 89 74 08 fc       	mov    %esi,-0x4(%r8,%rcx,1)
    5cb0:	e9 13 ff ff ff       	jmp    5bc8 <_ZL19stbi__vertical_flipPviii+0x108>
    5cb5:	0f 1f 00             	nopl   (%rax)
    5cb8:	89 c1                	mov    %eax,%ecx
    5cba:	41 0f b7 74 0a fe    	movzwl -0x2(%r10,%rcx,1),%esi
    5cc0:	66 89 74 0a fe       	mov    %si,-0x2(%rdx,%rcx,1)
    5cc5:	e9 80 fe ff ff       	jmp    5b4a <_ZL19stbi__vertical_flipPviii+0x8a>
    5cca:	66 0f 1f 44 00 00    	nopw   0x0(%rax,%rax,1)
    5cd0:	89 c1                	mov    %eax,%ecx
    5cd2:	0f b7 74 0a fe       	movzwl -0x2(%rdx,%rcx,1),%esi
    5cd7:	66 41 89 74 08 fe    	mov    %si,-0x2(%r8,%rcx,1)
    5cdd:	e9 e6 fe ff ff       	jmp    5bc8 <_ZL19stbi__vertical_flipPviii+0x108>
    5ce2:	e8 69 c4 ff ff       	call   2150 <__stack_chk_fail@plt>
    5ce7:	66 0f 1f 84 00 00 00 	nopw   0x0(%rax,%rax,1)
    5cee:	00 00 

0000000000005cf0 <_ZL22stbiw__encode_png_linePhiiiiiiPa>:
    5cf0:	41 57                	push   %r15
    5cf2:	89 c8                	mov    %ecx,%eax
    5cf4:	45 85 c0             	test   %r8d,%r8d
    5cf7:	48 8d 0d 92 44 03 00 	lea    0x34492(%rip),%rcx        # 3a190 <_ZZL22stbiw__encode_png_linePhiiiiiiPaE8firstmap>
    5cfe:	41 56                	push   %r14
    5d00:	49 89 fb             	mov    %rdi,%r11
    5d03:	41 89 f2             	mov    %esi,%r10d
    5d06:	41 55                	push   %r13
    5d08:	41 54                	push   %r12
    5d0a:	55                   	push   %rbp
    5d0b:	53                   	push   %rbx
    5d0c:	89 d3                	mov    %edx,%ebx
    5d0e:	48 8d 15 9b 44 03 00 	lea    0x3449b(%rip),%rdx        # 3a1b0 <_ZZL22stbiw__encode_png_linePhiiiiiiPaE7mapping>
    5d15:	48 8b 7c 24 40       	mov    0x40(%rsp),%rdi
    5d1a:	48 0f 44 d1          	cmove  %rcx,%rdx
    5d1e:	48 63 4c 24 38       	movslq 0x38(%rsp),%rcx
    5d23:	44 8b 24 8a          	mov    (%rdx,%rcx,4),%r12d
    5d27:	8b 15 07 47 03 00    	mov    0x34707(%rip),%edx        # 3a434 <_ZL30stbi__flip_vertically_on_write>
    5d2d:	85 d2                	test   %edx,%edx
    5d2f:	0f 84 3b 01 00 00    	je     5e70 <_ZL22stbiw__encode_png_linePhiiiiiiPa+0x180>
    5d35:	83 e8 01             	sub    $0x1,%eax
    5d38:	41 f7 da             	neg    %r10d
    5d3b:	44 29 c0             	sub    %r8d,%eax
    5d3e:	0f af c6             	imul   %esi,%eax
    5d41:	48 98                	cltq   
    5d43:	49 8d 34 03          	lea    (%r11,%rax,1),%rsi
    5d47:	45 85 e4             	test   %r12d,%r12d
    5d4a:	0f 84 34 01 00 00    	je     5e84 <_ZL22stbiw__encode_png_linePhiiiiiiPa+0x194>
    5d50:	45 85 c9             	test   %r9d,%r9d
    5d53:	7e 52                	jle    5da7 <_ZL22stbiw__encode_png_linePhiiiiiiPa+0xb7>
    5d55:	45 89 d3             	mov    %r10d,%r11d
    5d58:	49 63 c1             	movslq %r9d,%rax
    5d5b:	49 89 f0             	mov    %rsi,%r8
    5d5e:	48 89 f9             	mov    %rdi,%rcx
    5d61:	41 f7 db             	neg    %r11d
    5d64:	48 01 f8             	add    %rdi,%rax
    5d67:	48 8d 2d b2 df 02 00 	lea    0x2dfb2(%rip),%rbp        # 33d20 <_IO_stdin_used+0xd20>
    5d6e:	45 89 e5             	mov    %r12d,%r13d
    5d71:	0f 1f 80 00 00 00 00 	nopl   0x0(%rax)
    5d78:	41 83 fc 06          	cmp    $0x6,%r12d
    5d7c:	77 18                	ja     5d96 <_ZL22stbiw__encode_png_linePhiiiiiiPa+0xa6>
    5d7e:	4a 63 54 ad 00       	movslq 0x0(%rbp,%r13,4),%rdx
    5d83:	48 01 ea             	add    %rbp,%rdx
    5d86:	ff e2                	jmp    *%rdx
    5d88:	0f 1f 84 00 00 00 00 	nopl   0x0(%rax,%rax,1)
    5d8f:	00 
    5d90:	41 0f b6 10          	movzbl (%r8),%edx
    5d94:	88 11                	mov    %dl,(%rcx)
    5d96:	48 83 c1 01          	add    $0x1,%rcx
    5d9a:	49 83 c0 01          	add    $0x1,%r8
    5d9e:	41 83 c3 01          	add    $0x1,%r11d
    5da2:	48 39 c8             	cmp    %rcx,%rax
    5da5:	75 d1                	jne    5d78 <_ZL22stbiw__encode_png_linePhiiiiiiPa+0x88>
    5da7:	41 83 fc 06          	cmp    $0x6,%r12d
    5dab:	0f 87 b1 00 00 00    	ja     5e62 <_ZL22stbiw__encode_png_linePhiiiiiiPa+0x172>
    5db1:	48 8d 15 84 df 02 00 	lea    0x2df84(%rip),%rdx        # 33d3c <_IO_stdin_used+0xd3c>
    5db8:	44 89 e0             	mov    %r12d,%eax
    5dbb:	48 63 04 82          	movslq (%rdx,%rax,4),%rax
    5dbf:	48 01 d0             	add    %rdx,%rax
    5dc2:	ff e0                	jmp    *%rax
    5dc4:	0f 1f 40 00          	nopl   0x0(%rax)
    5dc8:	4d 63 f3             	movslq %r11d,%r14
    5dcb:	41 0f b6 10          	movzbl (%r8),%edx
    5dcf:	42 2a 14 36          	sub    (%rsi,%r14,1),%dl
    5dd3:	88 11                	mov    %dl,(%rcx)
    5dd5:	eb bf                	jmp    5d96 <_ZL22stbiw__encode_png_linePhiiiiiiPa+0xa6>
    5dd7:	66 0f 1f 84 00 00 00 	nopw   0x0(%rax,%rax,1)
    5dde:	00 00 
    5de0:	49 63 d3             	movslq %r11d,%rdx
    5de3:	44 0f b6 34 16       	movzbl (%rsi,%rdx,1),%r14d
    5de8:	41 0f b6 10          	movzbl (%r8),%edx
    5dec:	41 d0 ee             	shr    %r14b
    5def:	44 29 f2             	sub    %r14d,%edx
    5df2:	88 11                	mov    %dl,(%rcx)
    5df4:	eb a0                	jmp    5d96 <_ZL22stbiw__encode_png_linePhiiiiiiPa+0xa6>
    5df6:	66 2e 0f 1f 84 00 00 	cs nopw 0x0(%rax,%rax,1)
    5dfd:	00 00 00 
    5e00:	41 0f af d9          	imul   %r9d,%ebx
    5e04:	41 39 d9             	cmp    %ebx,%r9d
    5e07:	7d 59                	jge    5e62 <_ZL22stbiw__encode_png_linePhiiiiiiPa+0x172>
    5e09:	89 d9                	mov    %ebx,%ecx
    5e0b:	49 63 c1             	movslq %r9d,%rax
    5e0e:	44 29 c9             	sub    %r9d,%ecx
    5e11:	8d 51 ff             	lea    -0x1(%rcx),%edx
    5e14:	83 fa 06             	cmp    $0x6,%edx
    5e17:	76 29                	jbe    5e42 <_ZL22stbiw__encode_png_linePhiiiiiiPa+0x152>
    5e19:	4c 8d 04 07          	lea    (%rdi,%rax,1),%r8
    5e1d:	4c 8d 5c 06 01       	lea    0x1(%rsi,%rax,1),%r11
    5e22:	4d 89 c2             	mov    %r8,%r10
    5e25:	4d 29 da             	sub    %r11,%r10
    5e28:	49 83 fa 0e          	cmp    $0xe,%r10
    5e2c:	76 14                	jbe    5e42 <_ZL22stbiw__encode_png_linePhiiiiiiPa+0x152>
    5e2e:	4c 8d 5e 01          	lea    0x1(%rsi),%r11
    5e32:	4d 89 c2             	mov    %r8,%r10
    5e35:	4d 29 da             	sub    %r11,%r10
    5e38:	49 83 fa 0e          	cmp    $0xe,%r10
    5e3c:	0f 87 c2 11 00 00    	ja     7004 <_ZL22stbiw__encode_png_linePhiiiiiiPa+0x1314>
    5e42:	48 89 f1             	mov    %rsi,%rcx
    5e45:	48 29 c1             	sub    %rax,%rcx
    5e48:	0f 1f 84 00 00 00 00 	nopl   0x0(%rax,%rax,1)
    5e4f:	00 
    5e50:	0f b6 14 06          	movzbl (%rsi,%rax,1),%edx
    5e54:	2a 14 01             	sub    (%rcx,%rax,1),%dl
    5e57:	88 14 07             	mov    %dl,(%rdi,%rax,1)
    5e5a:	48 83 c0 01          	add    $0x1,%rax
    5e5e:	39 c3                	cmp    %eax,%ebx
    5e60:	7f ee                	jg     5e50 <_ZL22stbiw__encode_png_linePhiiiiiiPa+0x160>
    5e62:	5b                   	pop    %rbx
    5e63:	5d                   	pop    %rbp
    5e64:	41 5c                	pop    %r12
    5e66:	41 5d                	pop    %r13
    5e68:	41 5e                	pop    %r14
    5e6a:	41 5f                	pop    %r15
    5e6c:	c3                   	ret    
    5e6d:	0f 1f 00             	nopl   (%rax)
    5e70:	44 0f af c6          	imul   %esi,%r8d
    5e74:	4d 63 c0             	movslq %r8d,%r8
    5e77:	4b 8d 34 03          	lea    (%r11,%r8,1),%rsi
    5e7b:	45 85 e4             	test   %r12d,%r12d
    5e7e:	0f 85 cc fe ff ff    	jne    5d50 <_ZL22stbiw__encode_png_linePhiiiiiiPa+0x60>
    5e84:	44 0f af cb          	imul   %ebx,%r9d
    5e88:	5b                   	pop    %rbx
    5e89:	5d                   	pop    %rbp
    5e8a:	41 5c                	pop    %r12
    5e8c:	41 5d                	pop    %r13
    5e8e:	41 5e                	pop    %r14
    5e90:	41 5f                	pop    %r15
    5e92:	49 63 d1             	movslq %r9d,%rdx
    5e95:	e9 66 c2 ff ff       	jmp    2100 <memcpy@plt>
    5e9a:	66 0f 1f 44 00 00    	nopw   0x0(%rax,%rax,1)
    5ea0:	41 0f af d9          	imul   %r9d,%ebx
    5ea4:	44 39 cb             	cmp    %r9d,%ebx
    5ea7:	7e b9                	jle    5e62 <_ZL22stbiw__encode_png_linePhiiiiiiPa+0x172>
    5ea9:	89 d9                	mov    %ebx,%ecx
    5eab:	49 63 c1             	movslq %r9d,%rax
    5eae:	44 29 c9             	sub    %r9d,%ecx
    5eb1:	8d 51 ff             	lea    -0x1(%rcx),%edx
    5eb4:	83 fa 06             	cmp    $0x6,%edx
    5eb7:	0f 86 b3 10 00 00    	jbe    6f70 <_ZL22stbiw__encode_png_linePhiiiiiiPa+0x1280>
    5ebd:	4c 8d 04 07          	lea    (%rdi,%rax,1),%r8
    5ec1:	4c 8d 5c 06 01       	lea    0x1(%rsi,%rax,1),%r11
    5ec6:	4d 89 c2             	mov    %r8,%r10
    5ec9:	4d 29 da             	sub    %r11,%r10
    5ecc:	49 83 fa 0e          	cmp    $0xe,%r10
    5ed0:	0f 86 9a 10 00 00    	jbe    6f70 <_ZL22stbiw__encode_png_linePhiiiiiiPa+0x1280>
    5ed6:	4c 8d 5e 01          	lea    0x1(%rsi),%r11
    5eda:	4d 89 c2             	mov    %r8,%r10
    5edd:	4d 29 da             	sub    %r11,%r10
    5ee0:	49 83 fa 0e          	cmp    $0xe,%r10
    5ee4:	0f 86 86 10 00 00    	jbe    6f70 <_ZL22stbiw__encode_png_linePhiiiiiiPa+0x1280>
    5eea:	83 fa 0e             	cmp    $0xe,%edx
    5eed:	0f 86 4f 11 00 00    	jbe    7042 <_ZL22stbiw__encode_png_linePhiiiiiiPa+0x1352>
    5ef3:	41 89 ca             	mov    %ecx,%r10d
    5ef6:	4c 8d 1c 06          	lea    (%rsi,%rax,1),%r11
    5efa:	31 d2                	xor    %edx,%edx
    5efc:	41 c1 ea 04          	shr    $0x4,%r10d
    5f00:	49 c1 e2 04          	shl    $0x4,%r10
    5f04:	0f 1f 40 00          	nopl   0x0(%rax)
    5f08:	f3 41 0f 6f 04 13    	movdqu (%r11,%rdx,1),%xmm0
    5f0e:	f3 0f 6f 2c 16       	movdqu (%rsi,%rdx,1),%xmm5
    5f13:	66 0f f8 c5          	psubb  %xmm5,%xmm0
    5f17:	41 0f 11 04 10       	movups %xmm0,(%r8,%rdx,1)
    5f1c:	48 83 c2 10          	add    $0x10,%rdx
    5f20:	49 39 d2             	cmp    %rdx,%r10
    5f23:	75 e3                	jne    5f08 <_ZL22stbiw__encode_png_linePhiiiiiiPa+0x218>
    5f25:	41 89 c8             	mov    %ecx,%r8d
    5f28:	41 83 e0 f0          	and    $0xfffffff0,%r8d
    5f2c:	43 8d 14 08          	lea    (%r8,%r9,1),%edx
    5f30:	f6 c1 0f             	test   $0xf,%cl
    5f33:	0f 84 29 ff ff ff    	je     5e62 <_ZL22stbiw__encode_png_linePhiiiiiiPa+0x172>
    5f39:	44 29 c1             	sub    %r8d,%ecx
    5f3c:	44 8d 51 ff          	lea    -0x1(%rcx),%r10d
    5f40:	41 83 fa 06          	cmp    $0x6,%r10d
    5f44:	76 27                	jbe    5f6d <_ZL22stbiw__encode_png_linePhiiiiiiPa+0x27d>
    5f46:	4c 01 c0             	add    %r8,%rax
    5f49:	f3 42 0f 7e 0c 06    	movq   (%rsi,%r8,1),%xmm1
    5f4f:	f3 0f 7e 04 06       	movq   (%rsi,%rax,1),%xmm0
    5f54:	66 0f f8 c1          	psubb  %xmm1,%xmm0
    5f58:	66 0f d6 04 07       	movq   %xmm0,(%rdi,%rax,1)
    5f5d:	89 c8                	mov    %ecx,%eax
    5f5f:	83 e0 f8             	and    $0xfffffff8,%eax
    5f62:	01 c2                	add    %eax,%edx
    5f64:	83 e1 07             	and    $0x7,%ecx
    5f67:	0f 84 f5 fe ff ff    	je     5e62 <_ZL22stbiw__encode_png_linePhiiiiiiPa+0x172>
    5f6d:	89 d1                	mov    %edx,%ecx
    5f6f:	4c 63 c2             	movslq %edx,%r8
    5f72:	44 29 c9             	sub    %r9d,%ecx
    5f75:	42 0f b6 04 06       	movzbl (%rsi,%r8,1),%eax
    5f7a:	48 63 c9             	movslq %ecx,%rcx
    5f7d:	2a 04 0e             	sub    (%rsi,%rcx,1),%al
    5f80:	42 88 04 07          	mov    %al,(%rdi,%r8,1)
    5f84:	8d 42 01             	lea    0x1(%rdx),%eax
    5f87:	39 c3                	cmp    %eax,%ebx
    5f89:	0f 8e d3 fe ff ff    	jle    5e62 <_ZL22stbiw__encode_png_linePhiiiiiiPa+0x172>
    5f8f:	4c 63 c0             	movslq %eax,%r8
    5f92:	44 29 c8             	sub    %r9d,%eax
    5f95:	48 98                	cltq   
    5f97:	42 0f b6 0c 06       	movzbl (%rsi,%r8,1),%ecx
    5f9c:	2a 0c 06             	sub    (%rsi,%rax,1),%cl
    5f9f:	8d 42 02             	lea    0x2(%rdx),%eax
    5fa2:	42 88 0c 07          	mov    %cl,(%rdi,%r8,1)
    5fa6:	39 c3                	cmp    %eax,%ebx
    5fa8:	0f 8e b4 fe ff ff    	jle    5e62 <_ZL22stbiw__encode_png_linePhiiiiiiPa+0x172>
    5fae:	4c 63 c0             	movslq %eax,%r8
    5fb1:	44 29 c8             	sub    %r9d,%eax
    5fb4:	48 98                	cltq   
    5fb6:	42 0f b6 0c 06       	movzbl (%rsi,%r8,1),%ecx
    5fbb:	2a 0c 06             	sub    (%rsi,%rax,1),%cl
    5fbe:	8d 42 03             	lea    0x3(%rdx),%eax
    5fc1:	42 88 0c 07          	mov    %cl,(%rdi,%r8,1)
    5fc5:	39 c3                	cmp    %eax,%ebx
    5fc7:	0f 8e 95 fe ff ff    	jle    5e62 <_ZL22stbiw__encode_png_linePhiiiiiiPa+0x172>
    5fcd:	4c 63 c0             	movslq %eax,%r8
    5fd0:	44 29 c8             	sub    %r9d,%eax
    5fd3:	48 98                	cltq   
    5fd5:	42 0f b6 0c 06       	movzbl (%rsi,%r8,1),%ecx
    5fda:	2a 0c 06             	sub    (%rsi,%rax,1),%cl
    5fdd:	8d 42 04             	lea    0x4(%rdx),%eax
    5fe0:	42 88 0c 07          	mov    %cl,(%rdi,%r8,1)
    5fe4:	39 c3                	cmp    %eax,%ebx
    5fe6:	0f 8e 76 fe ff ff    	jle    5e62 <_ZL22stbiw__encode_png_linePhiiiiiiPa+0x172>
    5fec:	4c 63 c0             	movslq %eax,%r8
    5fef:	44 29 c8             	sub    %r9d,%eax
    5ff2:	48 98                	cltq   
    5ff4:	42 0f b6 0c 06       	movzbl (%rsi,%r8,1),%ecx
    5ff9:	2a 0c 06             	sub    (%rsi,%rax,1),%cl
    5ffc:	8d 42 05             	lea    0x5(%rdx),%eax
    5fff:	42 88 0c 07          	mov    %cl,(%rdi,%r8,1)
    6003:	39 c3                	cmp    %eax,%ebx
    6005:	0f 8e 57 fe ff ff    	jle    5e62 <_ZL22stbiw__encode_png_linePhiiiiiiPa+0x172>
    600b:	4c 63 c0             	movslq %eax,%r8
    600e:	44 29 c8             	sub    %r9d,%eax
    6011:	83 c2 06             	add    $0x6,%edx
    6014:	48 98                	cltq   
    6016:	42 0f b6 0c 06       	movzbl (%rsi,%r8,1),%ecx
    601b:	2a 0c 06             	sub    (%rsi,%rax,1),%cl
    601e:	42 88 0c 07          	mov    %cl,(%rdi,%r8,1)
    6022:	39 d3                	cmp    %edx,%ebx
    6024:	0f 8e 38 fe ff ff    	jle    5e62 <_ZL22stbiw__encode_png_linePhiiiiiiPa+0x172>
    602a:	48 63 ca             	movslq %edx,%rcx
    602d:	44 29 ca             	sub    %r9d,%edx
    6030:	48 63 c2             	movslq %edx,%rax
    6033:	0f b6 14 0e          	movzbl (%rsi,%rcx,1),%edx
    6037:	2a 14 06             	sub    (%rsi,%rax,1),%dl
    603a:	88 14 0f             	mov    %dl,(%rdi,%rcx,1)
    603d:	e9 20 fe ff ff       	jmp    5e62 <_ZL22stbiw__encode_png_linePhiiiiiiPa+0x172>
    6042:	66 0f 1f 44 00 00    	nopw   0x0(%rax,%rax,1)
    6048:	41 0f af d9          	imul   %r9d,%ebx
    604c:	41 39 d9             	cmp    %ebx,%r9d
    604f:	0f 8d 0d fe ff ff    	jge    5e62 <_ZL22stbiw__encode_png_linePhiiiiiiPa+0x172>
    6055:	41 89 d8             	mov    %ebx,%r8d
    6058:	49 63 c1             	movslq %r9d,%rax
    605b:	49 63 ca             	movslq %r10d,%rcx
    605e:	45 29 c8             	sub    %r9d,%r8d
    6061:	41 8d 50 ff          	lea    -0x1(%r8),%edx
    6065:	83 fa 06             	cmp    $0x6,%edx
    6068:	0f 86 32 0f 00 00    	jbe    6fa0 <_ZL22stbiw__encode_png_linePhiiiiiiPa+0x12b0>
    606e:	4c 8d 1c 07          	lea    (%rdi,%rax,1),%r11
    6072:	4c 8d 6c 06 01       	lea    0x1(%rsi,%rax,1),%r13
    6077:	49 63 ca             	movslq %r10d,%rcx
    607a:	48 89 c5             	mov    %rax,%rbp
    607d:	4d 89 dc             	mov    %r11,%r12
    6080:	48 29 cd             	sub    %rcx,%rbp
    6083:	4d 29 ec             	sub    %r13,%r12
    6086:	49 83 fc 0e          	cmp    $0xe,%r12
    608a:	0f 86 10 0f 00 00    	jbe    6fa0 <_ZL22stbiw__encode_png_linePhiiiiiiPa+0x12b0>
    6090:	4c 8d 6c 2e 01       	lea    0x1(%rsi,%rbp,1),%r13
    6095:	4d 89 dc             	mov    %r11,%r12
    6098:	4d 29 ec             	sub    %r13,%r12
    609b:	49 83 fc 0e          	cmp    $0xe,%r12
    609f:	0f 86 fb 0e 00 00    	jbe    6fa0 <_ZL22stbiw__encode_png_linePhiiiiiiPa+0x12b0>
    60a5:	83 fa 0e             	cmp    $0xe,%edx
    60a8:	0f 86 9f 0f 00 00    	jbe    704d <_ZL22stbiw__encode_png_linePhiiiiiiPa+0x135d>
    60ae:	48 8d 0c 2e          	lea    (%rsi,%rbp,1),%rcx
    60b2:	44 89 c5             	mov    %r8d,%ebp
    60b5:	4c 8d 24 06          	lea    (%rsi,%rax,1),%r12
    60b9:	31 d2                	xor    %edx,%edx
    60bb:	c1 ed 04             	shr    $0x4,%ebp
    60be:	48 c1 e5 04          	shl    $0x4,%rbp
    60c2:	66 0f 1f 44 00 00    	nopw   0x0(%rax,%rax,1)
    60c8:	f3 41 0f 6f 04 14    	movdqu (%r12,%rdx,1),%xmm0
    60ce:	f3 0f 6f 2c 11       	movdqu (%rcx,%rdx,1),%xmm5
    60d3:	66 0f f8 c5          	psubb  %xmm5,%xmm0
    60d7:	41 0f 11 04 13       	movups %xmm0,(%r11,%rdx,1)
    60dc:	48 83 c2 10          	add    $0x10,%rdx
    60e0:	48 39 d5             	cmp    %rdx,%rbp
    60e3:	75 e3                	jne    60c8 <_ZL22stbiw__encode_png_linePhiiiiiiPa+0x3d8>
    60e5:	44 89 c2             	mov    %r8d,%edx
    60e8:	83 e2 f0             	and    $0xfffffff0,%edx
    60eb:	41 01 d1             	add    %edx,%r9d
    60ee:	41 f6 c0 0f          	test   $0xf,%r8b
    60f2:	0f 84 6a fd ff ff    	je     5e62 <_ZL22stbiw__encode_png_linePhiiiiiiPa+0x172>
    60f8:	41 29 d0             	sub    %edx,%r8d
    60fb:	45 8d 58 ff          	lea    -0x1(%r8),%r11d
    60ff:	41 83 fb 06          	cmp    $0x6,%r11d
    6103:	76 29                	jbe    612e <_ZL22stbiw__encode_png_linePhiiiiiiPa+0x43e>
    6105:	48 01 d0             	add    %rdx,%rax
    6108:	f3 0f 7e 0c 11       	movq   (%rcx,%rdx,1),%xmm1
    610d:	f3 0f 7e 04 06       	movq   (%rsi,%rax,1),%xmm0
    6112:	66 0f f8 c1          	psubb  %xmm1,%xmm0
    6116:	66 0f d6 04 07       	movq   %xmm0,(%rdi,%rax,1)
    611b:	44 89 c0             	mov    %r8d,%eax
    611e:	83 e0 f8             	and    $0xfffffff8,%eax
    6121:	41 01 c1             	add    %eax,%r9d
    6124:	41 83 e0 07          	and    $0x7,%r8d
    6128:	0f 84 34 fd ff ff    	je     5e62 <_ZL22stbiw__encode_png_linePhiiiiiiPa+0x172>
    612e:	44 89 ca             	mov    %r9d,%edx
    6131:	49 63 c9             	movslq %r9d,%rcx
    6134:	44 29 d2             	sub    %r10d,%edx
    6137:	0f b6 04 0e          	movzbl (%rsi,%rcx,1),%eax
    613b:	48 63 d2             	movslq %edx,%rdx
    613e:	2a 04 16             	sub    (%rsi,%rdx,1),%al
    6141:	88 04 0f             	mov    %al,(%rdi,%rcx,1)
    6144:	41 8d 41 01          	lea    0x1(%r9),%eax
    6148:	39 d8                	cmp    %ebx,%eax
    614a:	0f 8d 12 fd ff ff    	jge    5e62 <_ZL22stbiw__encode_png_linePhiiiiiiPa+0x172>
    6150:	48 63 c8             	movslq %eax,%rcx
    6153:	44 29 d0             	sub    %r10d,%eax
    6156:	48 98                	cltq   
    6158:	0f b6 14 0e          	movzbl (%rsi,%rcx,1),%edx
    615c:	2a 14 06             	sub    (%rsi,%rax,1),%dl
    615f:	41 8d 41 02          	lea    0x2(%r9),%eax
    6163:	88 14 0f             	mov    %dl,(%rdi,%rcx,1)
    6166:	39 d8                	cmp    %ebx,%eax
    6168:	0f 8d f4 fc ff ff    	jge    5e62 <_ZL22stbiw__encode_png_linePhiiiiiiPa+0x172>
    616e:	48 63 c8             	movslq %eax,%rcx
    6171:	44 29 d0             	sub    %r10d,%eax
    6174:	48 98                	cltq   
    6176:	0f b6 14 0e          	movzbl (%rsi,%rcx,1),%edx
    617a:	2a 14 06             	sub    (%rsi,%rax,1),%dl
    617d:	41 8d 41 03          	lea    0x3(%r9),%eax
    6181:	88 14 0f             	mov    %dl,(%rdi,%rcx,1)
    6184:	39 c3                	cmp    %eax,%ebx
    6186:	0f 8e d6 fc ff ff    	jle    5e62 <_ZL22stbiw__encode_png_linePhiiiiiiPa+0x172>
    618c:	48 63 c8             	movslq %eax,%rcx
    618f:	44 29 d0             	sub    %r10d,%eax
    6192:	48 98                	cltq   
    6194:	0f b6 14 0e          	movzbl (%rsi,%rcx,1),%edx
    6198:	2a 14 06             	sub    (%rsi,%rax,1),%dl
    619b:	41 8d 41 04          	lea    0x4(%r9),%eax
    619f:	88 14 0f             	mov    %dl,(%rdi,%rcx,1)
    61a2:	39 d8                	cmp    %ebx,%eax
    61a4:	0f 8d b8 fc ff ff    	jge    5e62 <_ZL22stbiw__encode_png_linePhiiiiiiPa+0x172>
    61aa:	48 63 c8             	movslq %eax,%rcx
    61ad:	44 29 d0             	sub    %r10d,%eax
    61b0:	48 98                	cltq   
    61b2:	0f b6 14 0e          	movzbl (%rsi,%rcx,1),%edx
    61b6:	2a 14 06             	sub    (%rsi,%rax,1),%dl
    61b9:	41 8d 41 05          	lea    0x5(%r9),%eax
    61bd:	88 14 0f             	mov    %dl,(%rdi,%rcx,1)
    61c0:	39 c3                	cmp    %eax,%ebx
    61c2:	0f 8e 9a fc ff ff    	jle    5e62 <_ZL22stbiw__encode_png_linePhiiiiiiPa+0x172>
    61c8:	48 63 c8             	movslq %eax,%rcx
    61cb:	44 29 d0             	sub    %r10d,%eax
    61ce:	41 83 c1 06          	add    $0x6,%r9d
    61d2:	48 98                	cltq   
    61d4:	0f b6 14 0e          	movzbl (%rsi,%rcx,1),%edx
    61d8:	2a 14 06             	sub    (%rsi,%rax,1),%dl
    61db:	88 14 0f             	mov    %dl,(%rdi,%rcx,1)
    61de:	44 39 cb             	cmp    %r9d,%ebx
    61e1:	0f 8e 7b fc ff ff    	jle    5e62 <_ZL22stbiw__encode_png_linePhiiiiiiPa+0x172>
    61e7:	49 63 c9             	movslq %r9d,%rcx
    61ea:	45 29 d1             	sub    %r10d,%r9d
    61ed:	49 63 c1             	movslq %r9d,%rax
    61f0:	0f b6 14 0e          	movzbl (%rsi,%rcx,1),%edx
    61f4:	2a 14 06             	sub    (%rsi,%rax,1),%dl
    61f7:	88 14 0f             	mov    %dl,(%rdi,%rcx,1)
    61fa:	e9 63 fc ff ff       	jmp    5e62 <_ZL22stbiw__encode_png_linePhiiiiiiPa+0x172>
    61ff:	90                   	nop
    6200:	41 0f af d9          	imul   %r9d,%ebx
    6204:	89 5c 24 a4          	mov    %ebx,-0x5c(%rsp)
    6208:	44 39 cb             	cmp    %r9d,%ebx
    620b:	0f 8e 51 fc ff ff    	jle    5e62 <_ZL22stbiw__encode_png_linePhiiiiiiPa+0x172>
    6211:	44 29 cb             	sub    %r9d,%ebx
    6214:	49 63 ca             	movslq %r10d,%rcx
    6217:	8d 43 ff             	lea    -0x1(%rbx),%eax
    621a:	83 f8 0e             	cmp    $0xe,%eax
    621d:	49 63 c1             	movslq %r9d,%rax
    6220:	0f 86 7a 0c 00 00    	jbe    6ea0 <_ZL22stbiw__encode_png_linePhiiiiiiPa+0x11b0>
    6226:	4c 8d 1c 07          	lea    (%rdi,%rax,1),%r11
    622a:	48 8d 6c 06 01       	lea    0x1(%rsi,%rax,1),%rbp
    622f:	49 63 ca             	movslq %r10d,%rcx
    6232:	48 89 c2             	mov    %rax,%rdx
    6235:	4d 89 d8             	mov    %r11,%r8
    6238:	45 89 d5             	mov    %r10d,%r13d
    623b:	4c 8d 66 01          	lea    0x1(%rsi),%r12
    623f:	48 29 ca             	sub    %rcx,%rdx
    6242:	49 29 e8             	sub    %rbp,%r8
    6245:	41 f7 dd             	neg    %r13d
    6248:	4c 89 dd             	mov    %r11,%rbp
    624b:	49 83 f8 0e          	cmp    $0xe,%r8
    624f:	4d 63 ed             	movslq %r13d,%r13
    6252:	41 0f 97 c0          	seta   %r8b
    6256:	4c 29 e5             	sub    %r12,%rbp
    6259:	4c 8d 64 16 01       	lea    0x1(%rsi,%rdx,1),%r12
    625e:	48 83 fd 0e          	cmp    $0xe,%rbp
    6262:	40 0f 97 c5          	seta   %bpl
    6266:	41 21 e8             	and    %ebp,%r8d
    6269:	4c 89 dd             	mov    %r11,%rbp
    626c:	4c 29 e5             	sub    %r12,%rbp
    626f:	48 83 fd 0e          	cmp    $0xe,%rbp
    6273:	40 0f 97 c5          	seta   %bpl
    6277:	41 84 e8             	test   %bpl,%r8b
    627a:	0f 84 20 0c 00 00    	je     6ea0 <_ZL22stbiw__encode_png_linePhiiiiiiPa+0x11b0>
    6280:	4a 8d 6c 2e 01       	lea    0x1(%rsi,%r13,1),%rbp
    6285:	4d 89 d8             	mov    %r11,%r8
    6288:	49 29 e8             	sub    %rbp,%r8
    628b:	49 83 f8 0e          	cmp    $0xe,%r8
    628f:	0f 86 0b 0c 00 00    	jbe    6ea0 <_ZL22stbiw__encode_png_linePhiiiiiiPa+0x11b0>
    6295:	41 89 d8             	mov    %ebx,%r8d
    6298:	4c 8d 14 16          	lea    (%rsi,%rdx,1),%r10
    629c:	48 8d 2c 06          	lea    (%rsi,%rax,1),%rbp
    62a0:	49 01 f5             	add    %rsi,%r13
    62a3:	41 c1 e8 04          	shr    $0x4,%r8d
    62a7:	66 45 0f ef f6       	pxor   %xmm14,%xmm14
    62ac:	66 45 0f ef ed       	pxor   %xmm13,%xmm13
    62b1:	31 d2                	xor    %edx,%edx
    62b3:	49 c1 e0 04          	shl    $0x4,%r8
    62b7:	f3 41 0f 6f 44 15 00 	movdqu 0x0(%r13,%rdx,1),%xmm0
    62be:	66 0f ef f6          	pxor   %xmm6,%xmm6
    62c2:	f3 0f 6f 3c 16       	movdqu (%rsi,%rdx,1),%xmm7
    62c7:	f3 41 0f 6f 4c 15 00 	movdqu 0x0(%r13,%rdx,1),%xmm1
    62ce:	f3 41 0f 6f 24 12    	movdqu (%r10,%rdx,1),%xmm4
    62d4:	66 0f 6f de          	movdqa %xmm6,%xmm3
    62d8:	66 0f 68 c6          	punpckhbw %xmm6,%xmm0
    62dc:	66 0f 60 fe          	punpcklbw %xmm6,%xmm7
    62e0:	66 0f 6f e8          	movdqa %xmm0,%xmm5
    62e4:	66 0f 60 ce          	punpcklbw %xmm6,%xmm1
    62e8:	66 0f 68 e6          	punpckhbw %xmm6,%xmm4
    62ec:	66 41 0f 69 ee       	punpckhwd %xmm14,%xmm5
    62f1:	66 44 0f 6f ff       	movdqa %xmm7,%xmm15
    62f6:	66 44 0f 6f c9       	movdqa %xmm1,%xmm9
    62fb:	0f 29 6c 24 c8       	movaps %xmm5,-0x38(%rsp)
    6300:	f3 41 0f 6f 2c 12    	movdqu (%r10,%rdx,1),%xmm5
    6306:	66 45 0f 61 fe       	punpcklwd %xmm14,%xmm15
    630b:	66 45 0f 61 ce       	punpcklwd %xmm14,%xmm9
    6310:	66 44 0f 6f c0       	movdqa %xmm0,%xmm8
    6315:	66 41 0f 69 fe       	punpckhwd %xmm14,%xmm7
    631a:	66 41 0f 69 ce       	punpckhwd %xmm14,%xmm1
    631f:	66 0f 60 ee          	punpcklbw %xmm6,%xmm5
    6323:	f3 0f 6f 34 16       	movdqu (%rsi,%rdx,1),%xmm6
    6328:	66 45 0f 61 c6       	punpcklwd %xmm14,%xmm8
    632d:	66 0f 6f d7          	movdqa %xmm7,%xmm2
    6331:	66 44 0f 6f dd       	movdqa %xmm5,%xmm11
    6336:	44 0f 29 44 24 b8    	movaps %xmm8,-0x48(%rsp)
    633c:	66 41 0f 69 ee       	punpckhwd %xmm14,%xmm5
    6341:	66 44 0f 6f d4       	movdqa %xmm4,%xmm10
    6346:	66 45 0f 61 de       	punpcklwd %xmm14,%xmm11
    634b:	66 0f 68 f3          	punpckhbw %xmm3,%xmm6
    634f:	66 41 0f 6f df       	movdqa %xmm15,%xmm3
    6354:	0f 29 4c 24 a8       	movaps %xmm1,-0x58(%rsp)
    6359:	66 41 0f fe db       	paddd  %xmm11,%xmm3
    635e:	66 0f fe d5          	paddd  %xmm5,%xmm2
    6362:	66 44 0f 6f e6       	movdqa %xmm6,%xmm12
    6367:	66 41 0f fa d9       	psubd  %xmm9,%xmm3
    636c:	66 0f fa 54 24 a8    	psubd  -0x58(%rsp),%xmm2
    6372:	66 45 0f 61 e6       	punpcklwd %xmm14,%xmm12
    6377:	66 44 0f 6f c3       	movdqa %xmm3,%xmm8
    637c:	66 45 0f 61 d6       	punpcklwd %xmm14,%xmm10
    6381:	66 41 0f 6f cc       	movdqa %xmm12,%xmm1
    6386:	66 45 0f fa c7       	psubd  %xmm15,%xmm8
    638b:	66 41 0f fe ca       	paddd  %xmm10,%xmm1
    6390:	66 41 0f 69 f6       	punpckhwd %xmm14,%xmm6
    6395:	66 45 0f 6f f8       	movdqa %xmm8,%xmm15
    639a:	66 0f fa 4c 24 b8    	psubd  -0x48(%rsp),%xmm1
    63a0:	66 41 0f 69 e6       	punpckhwd %xmm14,%xmm4
    63a5:	66 41 0f 72 e7 1f    	psrad  $0x1f,%xmm15
    63ab:	66 0f 6f c6          	movdqa %xmm6,%xmm0
    63af:	66 45 0f ef c7       	pxor   %xmm15,%xmm8
    63b4:	66 0f fe c4          	paddd  %xmm4,%xmm0
    63b8:	66 0f fa 44 24 c8    	psubd  -0x38(%rsp),%xmm0
    63be:	66 45 0f fa c7       	psubd  %xmm15,%xmm8
    63c3:	66 44 0f 6f fa       	movdqa %xmm2,%xmm15
    63c8:	66 44 0f fa ff       	psubd  %xmm7,%xmm15
    63cd:	44 0f 29 44 24 d8    	movaps %xmm8,-0x28(%rsp)
    63d3:	66 41 0f 6f ff       	movdqa %xmm15,%xmm7
    63d8:	66 45 0f 6f c7       	movdqa %xmm15,%xmm8
    63dd:	66 0f 72 e7 1f       	psrad  $0x1f,%xmm7
    63e2:	66 44 0f ef c7       	pxor   %xmm7,%xmm8
    63e7:	66 45 0f 6f f8       	movdqa %xmm8,%xmm15
    63ec:	66 44 0f fa ff       	psubd  %xmm7,%xmm15
    63f1:	66 0f 6f f9          	movdqa %xmm1,%xmm7
    63f5:	66 41 0f fa fc       	psubd  %xmm12,%xmm7
    63fa:	66 44 0f 6f e7       	movdqa %xmm7,%xmm12
    63ff:	66 41 0f 72 e4 1f    	psrad  $0x1f,%xmm12
    6405:	66 41 0f ef fc       	pxor   %xmm12,%xmm7
    640a:	66 41 0f fa fc       	psubd  %xmm12,%xmm7
    640f:	66 44 0f 6f e7       	movdqa %xmm7,%xmm12
    6414:	66 0f 6f f8          	movdqa %xmm0,%xmm7
    6418:	66 0f fa fe          	psubd  %xmm6,%xmm7
    641c:	66 0f 6f f7          	movdqa %xmm7,%xmm6
    6420:	66 0f 72 e6 1f       	psrad  $0x1f,%xmm6
    6425:	66 0f ef fe          	pxor   %xmm6,%xmm7
    6429:	66 0f fa fe          	psubd  %xmm6,%xmm7
    642d:	66 0f 6f f3          	movdqa %xmm3,%xmm6
    6431:	66 41 0f fa d9       	psubd  %xmm9,%xmm3
    6436:	66 41 0f fa f3       	psubd  %xmm11,%xmm6
    643b:	66 44 0f 6f d8       	movdqa %xmm0,%xmm11
    6440:	0f 29 7c 24 e8       	movaps %xmm7,-0x18(%rsp)
    6445:	66 0f fa 44 24 c8    	psubd  -0x38(%rsp),%xmm0
    644b:	66 44 0f fa dc       	psubd  %xmm4,%xmm11
    6450:	66 0f 6f fe          	movdqa %xmm6,%xmm7
    6454:	66 0f 72 e7 1f       	psrad  $0x1f,%xmm7
    6459:	66 41 0f 6f e3       	movdqa %xmm11,%xmm4
    645e:	66 45 0f 6f c3       	movdqa %xmm11,%xmm8
    6463:	66 0f 72 e4 1f       	psrad  $0x1f,%xmm4
    6468:	66 0f ef f7          	pxor   %xmm7,%xmm6
    646c:	66 0f fa f7          	psubd  %xmm7,%xmm6
    6470:	66 44 0f ef c4       	pxor   %xmm4,%xmm8
    6475:	66 0f 6f fa          	movdqa %xmm2,%xmm7
    6479:	66 44 0f fa c4       	psubd  %xmm4,%xmm8
